
 Start  Stop   Length Name               Class

 00000H 046D0H 046D1H _TEXT              CODE
 046D1H 1061AH 0BF4AH NFP_TEXT           CODE
 1061BH 1A5EEH 09FD4H MOD1_TEXT          CODE
 1A5EFH 26D95H 0C7A7H MOD2_TEXT          CODE
 26D96H 26DAFH 0001AH WDT_TEXT           CODE
 26DB0H 26DBBH 0000CH CLOCKH_TEXT        CODE
 26DBCH 26DE8H 0002DH CLOCKHL_TEXT       CODE
 26DE9H 26DF4H 0000CH CLOCKL_TEXT        CODE
 26DF5H 26DFFH 0000BH LEDTOGLE_TEXT      CODE
 26E00H 26E2DH 0002EH L5INIT_TEXT        CODE
 26E2EH 26E47H 0001AH L5SHOW_TEXT        CODE
 26E48H 26E63H 0001CH L5SHOWD_TEXT       CODE
 26E64H 26E64H 00000H LED5_VAR_TEXT      CODE
 26E64H 26E99H 00036H TO__7219_TEXT      CODE
 26E9AH 27016H 0017DH DS1302_TEXT        CODE
 27017H 27063H 0004DH GETDATE_TEXT       CODE
 27064H 27096H 00033H GETTIME_TEXT       CODE
 27097H 270CAH 00034H READRAM_TEXT       CODE
 270CBH 27189H 000BFH GETT_D_TEXT        CODE
 2718AH 272FEH 00175H SETDATE_TEXT       CODE
 272FFH 2738CH 0008EH SETTIME_TEXT       CODE
 2738DH 273BAH 0002EH WRITERAM_TEXT      CODE
 273BBH 273BBH 00000H SYS_VAR_TEXT       CODE
 273BBH 27487H 000CDH INITLIB_TEXT       CODE
 27488H 27548H 000C1H EE1MREAD_TEXT      CODE
 27549H 275E2H 0009AH EE1MWR_TEXT        CODE
 275E3H 27622H 00040H EE1RDNXT_TEXT      CODE
 27623H 276A3H 00081H EE1READ_TEXT       CODE
 276A4H 2771DH 0007AH EE1WR_TEXT         CODE
 2771EH 2786DH 00150H EEP_BASE_TEXT      CODE
 2786EH 27884H 00017H EE_DISWR_TEXT      CODE
 27885H 2788CH 00008H EE_ENWR_TEXT       CODE
 2788DH 27A0AH 0017EH EE_INIT_TEXT       CODE
 27A0BH 27AA8H 0009EH EE_MREAD_TEXT      CODE
 27AA9H 27B16H 0006EH EE_MWR_TEXT        CODE
 27B17H 27BEDH 000D7H EE_MWR2_TEXT       CODE
 27BEEH 27C2DH 00040H EE_RDNXT_TEXT      CODE
 27C2EH 27CA0H 00073H EE_READ_TEXT       CODE
 27CA1H 27CA1H 00000H EE_VAR_TEXT        CODE
 27CA1H 27CF7H 00057H EE_WR_TEXT         CODE
 27CF8H 27D57H 00060H EE_MWRL_TEXT       CODE
 27D58H 27DB9H 00062H FLASHER_TEXT       CODE
 27DBAH 27F2CH 00173H FLASHID_TEXT       CODE
 27F2DH 27F8CH 00060H FLASHWR_TEXT       CODE
 27F8DH 27F97H 0000BH MKFP_TEXT          CODE
 27F98H 280EEH 00157H USRTIMER_TEXT      CODE
 280EFH 28138H 0004AH BAUDDIV_TEXT       CODE
 28139H 28150H 00018H CHKPORT_TEXT       CODE
 28151H 28188H 00038H COMINST_TEXT       CODE
 28189H 281BAH 00032H COMN_TEXT          CODE
 281BBH 281E0H 00026H COMREST_TEXT       CODE
 281E1H 28209H 00029H ISCOM_TEXT         CODE
 2820AH 2822FH 00026H READCOM_TEXT       CODE
 28230H 28290H 00061H SETBAUD_TEXT       CODE
 28291H 282BCH 0002CH TOCOM_TEXT         CODE
 282BDH 282E2H 00026H TXEMPTY_TEXT       CODE
 282E3H 282E3H 00000H UART_VAR_TEXT      CODE
 282E3H 28308H 00026H WAIT485_TEXT       CODE
 28309H 28336H 0002EH CHG_DATA_TEXT      CODE
 28337H 2847AH 00144H C1_BAUD_TEXT       CODE
 2847BH 2871CH 002A2H C1_DMA_TEXT        CODE
 2871DH 28744H 00028H C1_ISCOM_TEXT      CODE
 28745H 28BF0H 004ACH C1_ISR_TEXT        CODE
 28BF1H 28BFDH 0000DH C1_OE_TEXT         CODE
 28BFEH 28C6DH 00070H C1_READ_TEXT       CODE
 28C6EH 28DBDH 00150H C1_SENDN_TEXT      CODE
 28DBEH 28E5DH 000A0H C1_TOCOM_TEXT      CODE
 28E5EH 28E8CH 0002FH C1_WAIT_TEXT       CODE
 28E8DH 28FD0H 00144H C2_BAUD_TEXT       CODE
 28FD1H 29272H 002A2H C2_DMA_TEXT        CODE
 29273H 2929AH 00028H C2_ISCOM_TEXT      CODE
 2929BH 29746H 004ACH C2_ISR_TEXT        CODE
 29747H 29753H 0000DH C2_OE_TEXT         CODE
 29754H 2978CH 00039H C2_PRINT_TEXT      CODE
 2978DH 297FCH 00070H C2_READ_TEXT       CODE
 297FDH 2994CH 00150H C2_SENDN_TEXT      CODE
 2994DH 2997CH 00030H C2_STR_TEXT        CODE
 2997DH 29A1CH 000A0H C2_TOCOM_TEXT      CODE
 29A1DH 29A4BH 0002FH C2_WAIT_TEXT       CODE
 29A4CH 29B39H 000EEH C3_BAUD_TEXT       CODE
 29B3AH 29C78H 0013FH C3_COMN_TEXT       CODE
 29C79H 29C93H 0001BH C3_ISCOM_TEXT      CODE
 29C94H 29CA0H 0000DH C3_OE_TEXT         CODE
 29CA1H 29D09H 00069H C3_READ_TEXT       CODE
 29D0AH 29DCCH 000C3H C3_TOCOM_TEXT      CODE
 29DCDH 2A4C8H 006FCH C3_UART_TEXT       CODE
 2A4C9H 2A4FDH 00035H C3_WAIT_TEXT       CODE
 2A4FEH 2A5EBH 000EEH C4_BAUD_TEXT       CODE
 2A5ECH 2A71CH 00131H C4_COMN_TEXT       CODE
 2A71DH 2A737H 0001BH C4_ISCOM_TEXT      CODE
 2A738H 2A744H 0000DH C4_OE_TEXT         CODE
 2A745H 2A785H 00041H C4_READ_TEXT       CODE
 2A786H 2A83AH 000B5H C4_TOCOM_TEXT      CODE
 2A83BH 2ACBAH 00480H C4_UART_TEXT       CODE
 2ACBBH 2ACEFH 00035H C4_WAIT_TEXT       CODE
 2ACF0H 2ADDDH 000EEH C5_BAUD_TEXT       CODE
 2ADDEH 2AF1CH 0013FH C5_COMN_TEXT       CODE
 2AF1DH 2AF37H 0001BH C5_ISCOM_TEXT      CODE
 2AF38H 2AF44H 0000DH C5_OE_TEXT         CODE
 2AF45H 2AFADH 00069H C5_READ_TEXT       CODE
 2AFAEH 2B070H 000C3H C5_TOCOM_TEXT      CODE
 2B071H 2B76CH 006FCH C5_UART_TEXT       CODE
 2B76DH 2B7A1H 00035H C5_WAIT_TEXT       CODE
 2B7A2H 2B88FH 000EEH C6_BAUD_TEXT       CODE
 2B890H 2B9CEH 0013FH C6_COMN_TEXT       CODE
 2B9CFH 2B9E9H 0001BH C6_ISCOM_TEXT      CODE
 2B9EAH 2B9F6H 0000DH C6_OE_TEXT         CODE
 2B9F7H 2BA5FH 00069H C6_READ_TEXT       CODE
 2BA60H 2BB22H 000C3H C6_TOCOM_TEXT      CODE
 2BB23H 2C21EH 006FCH C6_UART_TEXT       CODE
 2C21FH 2C253H 00035H C6_WAIT_TEXT       CODE
 2C254H 2C341H 000EEH C7_BAUD_TEXT       CODE
 2C342H 2C480H 0013FH C7_COMN_TEXT       CODE
 2C481H 2C49BH 0001BH C7_ISCOM_TEXT      CODE
 2C49CH 2C4A8H 0000DH C7_OE_TEXT         CODE
 2C4A9H 2C511H 00069H C7_READ_TEXT       CODE
 2C512H 2C5D4H 000C3H C7_TOCOM_TEXT      CODE
 2C5D5H 2CCD0H 006FCH C7_UART_TEXT       CODE
 2CCD1H 2CD05H 00035H C7_WAIT_TEXT       CODE
 2CD06H 2CD10H 0000BH DI1_TEXT           CODE
 2CD11H 2CD28H 00018H SETDO1_TEXT        CODE
 2CD29H 2CD32H 0000AH DI2_TEXT           CODE
 2CD33H 2CD4AH 00018H SETDO2_TEXT        CODE
 2CD4BH 2CD8AH 00040H HEXASCII_TEXT      CODE
 2CD90H 2F506H 02777H EMU_PROG           CODE
 2F510H 2FAD7H 005C8H E87_PROG           CODE
 2FAE0H 2FAE0H 00000H _FARDATA           FAR_DATA
 2FAE0H 2FAE0H 00000H _FARBSS            FAR_BSS
 2FAE0H 2FAE0H 00000H _OVERLAY_          OVRINFO
 2FAE0H 2FAE0H 00000H _1STUB_            STUBSEG
 2FAE0H 3C0F5H 0C616H _DATA              DATA
 3C0F6H 3C0F9H 00004H _CVTSEG            DATA
 3C0FAH 3C105H 0000CH _SCNSEG            DATA
 3C106H 3C106H 00000H _CONST             CONST
 3C106H 3C11DH 00018H _INIT_             INITDATA
 3C11EH 3C11EH 00000H _INITEND_          INITDATA
 3C11EH 3C123H 00006H _EXIT_             EXITDATA
 3C124H 3C124H 00000H _EXITEND_          EXITDATA
 3C124H 3F2FDH 031DAH _BSS               BSS
 3F2FEH 3F2FEH 00000H _BSSEND            BSSEND
 3F300H 3F40FH 00110H _STACK             STACK

  Address         Publics by Name

 2FAE:0000       DATASEG@
 0000:0260       DGROUP@
 2CD9:2152       e086_Entry
 2CD9:26E0       e086_Shortcut
 2F51:0306       e087_Entry
 2F51:03C6       e087_Shortcut
 2F51:0430       e087_Trap
 2771:0039       EE_BITWRITE
 2771:0119       EE_INITWRITEMODE
 2771:00C5       EE_WRITEBYTE
 0000:FE32  Abs  FIARQQ
 0000:0E32  Abs  FICRQQ
 0000:5C32  Abs  FIDRQQ
 0000:1632  Abs  FIERQQ
 0000:0632  Abs  FISRQQ
 0000:A23D  Abs  FIWRQQ
 0000:4000  Abs  FJARQQ
 0000:C000  Abs  FJCRQQ
 0000:8000  Abs  FJSRQQ
 0000:1256       FTOL@
 0000:1256       F_FTOL@
 0000:029A       F_LDIV@
 0000:02A9       F_LMOD@
 0000:02A1       F_LUDIV@
 0000:02B1       F_LUMOD@
 0000:0348       F_LXLSH@
 0000:0264       F_LXMUL@
 0000:0369       F_LXRSH@
 0000:0389       F_LXURSH@
 0000:2994       F_OVERFLOW@
 0000:1345       F_PADD@
 0000:1374       F_PSUB@
 0000:027B       F_SCOPY@
 0000:029A       LDIV@
 0000:02A9       LMOD@
 0000:02A1       LUDIV@
 0000:02B1       LUMOD@
 0000:0348       LXLSH@
 0000:0264       LXMUL@
 0000:0369       LXRSH@
 0000:0389       LXURSH@
 0000:0297       N_LDIV@
 0000:02A6       N_LMOD@
 0000:029E       N_LUDIV@
 0000:02AE       N_LUMOD@
 0000:0345       N_LXLSH@
 0000:1688       N_LXMUL@
 0000:0366       N_LXRSH@
 0000:0386       N_LXURSH@
 0000:2994       N_OVERFLOW@
 0000:1342       N_PADD@
 0000:169F       N_PCMP@
 0000:1371       N_PSUB@
 0000:16C0       N_SCOPY@
 0000:2994       OVERFLOW@
 0000:1345       PADD@
 0000:1374       PSUB@
 0000:027B       SCOPY@
 26E2:000E       SHOW5DIGITLED
 26E4:0008       SHOW5DIGITLEDWITHDOT
 26E6:0004       WRITE_TO_7219
 2FAE:20C6       _Aa
 0000:0249       _abort
 2FAE:72DA       _adate00
 2FAE:F5A8       _adate11
 2FAE:D70C       _ADC
 2FAE:D68C       _ADC_c
 2FAE:D67C       _ADC_c4
 2FAE:E342       _addr
 2FAE:E336       _addr0
 2FAE:2F00       _AddrHost
 2FAE:733C       _AddrSlv
 2FAE:2F69       _adr_strt
 2FAE:72D4       _ahour00
 2FAE:2F35       _amount_f
 2FAE:16FF       _analog_num
 2FAE:172F       _analog_offset
 2FAE:170F       _analog_scale
 2FAE:F586       _ar_str
 2FAE:E2DA       _ar_str0_
 2CD4:000B       _ascii_to_hex
 0000:2CAF       _asctime
 0000:1282       _atexit
 0000:2A1B       _atoi
 0000:29A6       _atol
 2FAE:4DFF       _bas_1
 2FAE:4265       _baud
 2FAE:00F8       _baudrate_val
 2FAE:20CA       _Bb
 2FAE:BCB1       _bCtsChanged_1
 2FAE:BD23       _bCtsChanged_5
 2FAE:BD65       _bCtsChanged_6
 2FAE:BDA7       _bCtsChanged_7
 2FAE:6B48       _beginMassa
 2FAE:6B44       _beginValue
 2FAE:14A7       _beg_flch
 2FAE:F5F4       _bf_Slv
 2FAE:BCC8       _bGetBreak_1
 2FAE:BCF8       _bGetBreak_2
 2FAE:BC43       _bGetBreak_3
 2FAE:BC8B       _bGetBreak_4
 2FAE:BD3A       _bGetBreak_5
 2FAE:BD7C       _bGetBreak_6
 2FAE:BDBE       _bGetBreak_7
 2FAE:BCFE       _bMsrChanged
 2FAE:BCCE       _bMsrChanged_1
 2FAE:BD40       _bMsrChanged_5
 2FAE:BD82       _bMsrChanged_6
 2FAE:BDC4       _bMsrChanged_7
 2FAE:BA3C       _bNeedSetSpeed
 2FAE:DE7E       _buffer
 2FAE:C82E       _BufferMmiPrintf
 2FAE:E3E4       _buf_eep
 2FAE:1EAD       _buf_space
 2FAE:E30E       _buf_str
 2FAE:F4AA       _buf_tmpSR
 2FAE:F492       _buf_tmp_OFP
 2FAE:BCBA       _bUseXonXoff_1
 2FAE:BC23       _bUseXonXoff_3
 2FAE:BC6B       _bUseXonXoff_4
 2FAE:BD2C       _bUseXonXoff_5
 2FAE:BD6E       _bUseXonXoff_6
 2FAE:BDB0       _bUseXonXoff_7
 2FAE:BA64       _bWrite
 2FAE:70A4       _byte_timout_rtu
 2FAE:7366       _byte_timout_slv
 2FAE:20CE       _C1
 2FAE:20D6       _C2
 2FAE:20DE       _C3
 2FAE:20E6       _C4
 2FAE:DA81       _cb_COM
 2FAE:731C       _changeStateF1
 273B:000B       _CheckCpuSpeed
 29DC:0182       _CheckInputBufSize_1
 2B07:0176       _CheckInputBufSize_5
 2BB2:0178       _CheckInputBufSize_6
 2C5D:017A       _CheckInputBufSize_7
 29DC:016C       _CheckXonXoff_1
 2874:00DC       _CheckXonXoff_3
 2929:00E2       _CheckXonXoff_4
 2B07:0160       _CheckXonXoff_5
 2BB2:0162       _CheckXonXoff_6
 2C5D:0164       _CheckXonXoff_7
 2FAE:7098       _chg_new
 2FAE:7090       _chg_nn_par
 2FAE:7094       _chg_old
 2813:0009       _Chk_Port
 2FAE:3647       _chr_id
 2FAE:2F08       _ch_tmp
 2FAE:144B       _cl0_delay_off
 2FAE:144F       _cl1_delay_off
 2FAE:1453       _cl2_delay_off
 2847:0226       _ClearCom_DMA_3
 28FD:021C       _ClearCom_DMA_4
 29DC:0040       _ClearTxBuffer_1
 2A83:001C       _ClearTxBuffer_2
 2874:0037       _ClearTxBuffer_3
 2929:003D       _ClearTxBuffer_4
 2B07:0034       _ClearTxBuffer_5
 2BB2:0036       _ClearTxBuffer_6
 2C5D:0038       _ClearTxBuffer_7
 26DB:0000       _ClockHigh
 26DB:000C       _ClockHighLow
 26DB:001C       _ClockHighLow_1
 26DE:0009       _ClockLow
 2FAE:1587       _CLP0
 2FAE:1491       _cl_MVD_sw
 2FAE:1395       _CL_T0
 2FAE:13A9       _CL_T0_L
 2FAE:1399       _CL_T1
 2FAE:13AD       _CL_T1_L
 2FAE:139D       _CL_T2
 2FAE:13B1       _CL_T2_L
 2FAE:13A1       _CL_T3
 2FAE:13A5       _CL_T4
 2FAE:0562       _cl_t_c
 2FAE:13BD       _CL_val
 2FAE:13B5       _CL_val0
 2FAE:055E       _cl_val_c
 2FAE:13C9       _CL_val_L
 2FAE:13B9       _CL_val_L0
 2FAE:731E       _CMD_IN
 2FAE:7320       _CMD_OUT_p
 2FAE:41D5       _cm_baud
 2FAE:E34C       _cm_lgth
 2FAE:E34A       _cm_parity
 2FAE:E348       _cm_stop
 2FAE:4B1B       _cnt_after
 2FAE:06E5       _cnt_flt_MMI
 2FAE:733E       _cod_float
 2FAE:BC92       _ComBase_1
 2FAE:BCD4       _ComBase_2
 2FAE:BD04       _ComBase_5
 2FAE:BD46       _ComBase_6
 2FAE:BD88       _ComBase_7
 2FAE:00BC       _ComBaud
 2FAE:794E       _ComBaudSlv
 2FAE:BC2B       _ComData7_3
 2FAE:BC73       _ComData7_4
 2FAE:BC98       _ComErr_1
 2FAE:BCDA       _ComErr_2
 2FAE:BD0A       _ComErr_5
 2FAE:BD4C       _ComErr_6
 2FAE:BD8E       _ComErr_7
 2FAE:BCBB       _ComFcr_1
 2FAE:BCEB       _ComFcr_2
 2FAE:BD2D       _ComFcr_5
 2FAE:BD6F       _ComFcr_6
 2FAE:BDB1       _ComFcr_7
 2FAE:BCC0       _ComInCount_1
 2FAE:BCF0       _ComInCount_2
 2FAE:BD32       _ComInCount_5
 2FAE:BD74       _ComInCount_6
 2FAE:BDB6       _ComInCount_7
 2FAE:BCC4       _ComOutCount_1
 2FAE:BCF4       _ComOutCount_2
 2FAE:BD36       _ComOutCount_5
 2FAE:BD78       _ComOutCount_6
 2FAE:BDBA       _ComOutCount_7
 2FAE:2F04       _ComPortEcho
 2FAE:2F02       _ComPortHost
 2FAE:7336       _ComPortSlv
 2FAE:00EE       _ComProt
 2FAE:76BE       _Com_Baud_Slave
 2FAE:00D0       _Com_lgth
 2FAE:7952       _Com_lgthSlv
 2FAE:00DA       _Com_parity
 2FAE:7954       _Com_paritySlv
 2FAE:D78C       _COM_que
 2FAE:00E4       _Com_stop
 2FAE:7956       _Com_stopSlv
 2FAE:E282       _context
 2FAE:0B63       _Cor_max
 2FAE:2F31       _cost_v
 1A5E:8B90       _crc16
 2FAE:6D53       _CRC_err
 2FAE:E340       _CRC_flag
 2FAE:2F06       _CRC_flag_Echo
 2FAE:E360       _cst_tmp
 0000:2CDA       _ctime
 2FAE:BCAD       _CurCTS_1
 2FAE:BD1F       _CurCTS_5
 2FAE:BD61       _CurCTS_6
 2FAE:BDA3       _CurCTS_7
 2FAE:F732       _CurMsr
 2FAE:F730       _CurMsr_1
 2FAE:F748       _CurMsr_5
 2FAE:F754       _CurMsr_6
 2FAE:F760       _CurMsr_7
 2FAE:BCAF       _CurRTS_1
 2FAE:BD21       _CurRTS_5
 2FAE:BD63       _CurRTS_6
 2FAE:BDA5       _CurRTS_7
 2FAE:4083       _cutoff_off_M
 2FAE:4087       _cutoff_off_V
 2FAE:408B       _cutoff_on_M
 2FAE:408F       _cutoff_on_V
 2847:01EA       _DataSizeInCom_DMA_3
 28FD:01E0       _DataSizeInCom_DMA_4
 2FAE:D64C       _dat_i
 2FAE:C608       _daylight
 2FAE:0552       _dd_max
 2FAE:0556       _dd_min
 2FAE:D56E       _dd_time
 2FAE:0FEB       _Dens0
 2FAE:0FEF       _Density
 2FAE:0B73       _Dens_a
 2FAE:0B6B       _Dens_AD
 2FAE:20F6       _Dens_cmn
 2FAE:20FE       _Dens_cmn_f
 2FAE:14C9       _dFP_beg
 2FAE:14D5       _dFP_min
 2FAE:14E1       _dFP_min1
 2FAE:150D       _dFP_min1L
 2FAE:14ED       _dFP_min2
 2FAE:1519       _dFP_min2L
 2FAE:1501       _dFP_minL
 2FAE:14F5       _dFP_nom
 2FAE:1521       _dFP_nomL
 2FAE:5A3F       _dF_perm
 2FAE:DE6E       _digest
 2FAE:4AF7       _dim_xyz
 2FAE:1C49       _do1_t
 2FAE:1C4B       _do2_t
 2FAE:BCBC       _DoInputData_1
 2FAE:BCEC       _DoInputData_2
 2FAE:BD2E       _DoInputData_5
 2FAE:BD70       _DoInputData_6
 2FAE:BDB2       _DoInputData_7
 2FAE:709C       _dose_dlvr
 2FAE:7338       _dose_dlvr_sl
 2FAE:16E3       _DriveCurrent
 2FAE:16E9       _DriveError
 2FAE:16D1       _DriveSA
 2FAE:16D7       _DriveSD
 2FAE:16DD       _DriveState
 2FAE:16C7       _DriveStatus
 2FAE:16CB       _DriveSV
 2FAE:16BD       _Drive_SA_beg
 2FAE:16C1       _Drive_SD_beg
 2FAE:16B9       _Drive_SV_beg
 2FAE:3C8F       _dsc_tmp
 2FAE:796C       _ds_1
 2FAE:48C9       _ds_adc
 2FAE:4939       _ds_adci
 2FAE:49B7       _ds_adcl
 2FAE:49A9       _ds_aio
 2FAE:365B       _ds_bid
 2FAE:40E7       _ds_br
 2FAE:3B13       _ds_clt
 2FAE:3BBD       _ds_clv
 2FAE:3C2D       _ds_clvl
 2FAE:41D9       _ds_cm
 2FAE:4A27       _ds_com
 2FAE:411F       _ds_cp
 2FAE:3B59       _ds_cst
 2FAE:4093       _ds_ctrl
 2FAE:42CB       _ds_dd
 2FAE:3715       _ds_de
 2FAE:4211       _ds_dev
 2FAE:431F       _ds_df
 2FAE:4357       _ds_di
 2FAE:3803       _ds_dio
 2FAE:34F1       _ds_dm
 2FAE:42AF       _ds_dnf
 2FAE:4747       _ds_dno
 2FAE:42F5       _ds_dp
 2FAE:3929       _ds_dpd
 2FAE:3693       _ds_dps
 2FAE:3C9F       _ds_dsc
 2FAE:480B       _ds_dtc
 2FAE:4A35       _ds_echo
 2FAE:484B       _ds_ex
 2FAE:4867       _ds_flch
 2FAE:3F77       _ds_fle
 2FAE:4A53       _ds_fls
 2FAE:4533       _ds_fp
 2FAE:4587       _ds_fpd
 2FAE:45CD       _ds_fpdL
 2FAE:4605       _ds_fpm
 2FAE:4667       _ds_fpmL
 2FAE:4C03       _ds_fvar
 2FAE:3685       _ds_id
 2FAE:37E7       _ds_io
 2FAE:382D       _ds_io1
 2FAE:3881       _ds_io2
 2FAE:37BD       _ds_ioch
 2FAE:38D5       _ds_iod1
 2FAE:38FF       _ds_iod2
 2FAE:4BF3       _ds_ivar
 2FAE:3CE5       _ds_ka
 2FAE:43C7       _ds_kdp
 2FAE:441B       _ds_kfp
 2FAE:4445       _ds_kfpL
 2FAE:43F1       _ds_kip
 2FAE:439D       _ds_kp
 2FAE:4701       _ds_ldp
 2FAE:7078       _ds_list
 2FAE:01DC       _ds_list1
 2FAE:46BB       _ds_lp
 2FAE:35A7       _ds_lt
 2FAE:3561       _ds_mdf
 2FAE:438F       _ds_mdi
 2FAE:3553       _ds_mdn
 2FAE:4381       _ds_mdp
 2FAE:4A6F       _ds_mdt
 2FAE:3F23       _ds_mka
 2FAE:3E51       _ds_mki
 2FAE:3D0F       _ds_mko
 2FAE:3D7F       _ds_mks
 2FAE:4269       _ds_mod
 2FAE:42A1       _ds_modf
 2FAE:48AD       _ds_modn
 2FAE:3A4F       _ds_mvd
 2FAE:3ABF       _ds_mvt
 2FAE:3F3F       _ds_na
 2FAE:3F5B       _ds_no
 2FAE:4C2F       _ds_ns
 2FAE:3B9F       _ds_ofp
 2FAE:34B1       _ds_par
 2FAE:47D3       _ds_pard
 2FAE:35B5       _ds_parp
 2FAE:477F       _ds_part
 2FAE:4827       _ds_pass
 2FAE:3F85       _ds_pda
 2FAE:3FB1       _ds_pdda
 2FAE:3FC1       _ds_pddl
 2FAE:3FDB       _ds_pddp
 2FAE:3FA3       _ds_pdl
 2FAE:403D       _ds_pdn
 2FAE:35D9       _ds_rmvd
 2FAE:351B       _ds_scan
 2FAE:419D       _ds_sct
 2FAE:39ED       _ds_sll
 2FAE:3999       _ds_slt
 2FAE:4A99       _ds_slv
 2FAE:3BAF       _ds_stg
 2FAE:3ADB       _ds_swt
 2FAE:446F       _ds_tfp
 2FAE:44D1       _ds_tfpL
 2FAE:4165       _ds_trtu
 2FAE:404B       _ds_tsd
 2FAE:4C13       _ds_var
 2FAE:4BC7       _ds_vnn
 2FAE:3B83       _ds_vol
 2FAE:48BB       _ds_wins
 2FAE:35F9       _ds_wmvd
 2FAE:3615       _ds_wmvds
 2FAE:36F9       _ds_wmvf
 2FAE:34FF       _ds_zp
 2FAE:731A       _d_fl_offs
 2FAE:7318       _d_fl_seg
 2FAE:3FBF       _d_lst
 2FAE:0B59       _D_ref
 2FAE:2EFA       _EchoComN
 2748:0008       _EE1024_MultiRead
 2754:0009       _EE1024_MultiWrite
 2762:0003       _EE1024_RandomRead
 276A:0004       _EE1024_RandomWrite
 275E:0003       _EE1024_ReadNext
 2FAE:BA54       _EE1_MultiRead
 2FAE:BA5C       _EE1_MultiWrite
 2FAE:BA4C       _EE1_RandomRead
 2FAE:BA58       _EE1_RandomWrite
 2FAE:BA50       _EE1_ReadNext
 2FAE:4E21       _eee_num
 2FAE:BA6A       _EepAddrOffset
 2FAE:BA68       _EepBlockOffset
 2FAE:EBE6       _Eeprom_summ
 2FAE:BA66       _EepType
 2FAE:BA48       _EE_ClockHighLow
 2FAE:4E2F       _EE_Dat
 2FAE:BA62       _EE_Err
 2FAE:4E23       _ee_lgth_byte
 2FAE:5933       _ee_members
 27A0:000B       _EE_MultiRead
 27CF:0038       _EE_MultiRead_L
 27AA:0009       _EE_MultiWrite
 27B1:0007       _EE_MultiWrite_A
 27CF:0008       _EE_MultiWrite_L
 2FAE:E308       _ee_nn
 2FAE:E304       _ee_nn1
 27C2:000E       _EE_RandomRead
 27CA:0001       _EE_RandomWrite
 2771:0090       _EE_ReadAck
 2771:00EC       _EE_ReadByte
 27BE:000E       _EE_ReadNext
 2771:00AE       _EE_SendAck
 2771:005B       _EE_Start
 2771:007E       _EE_Stop
 2788:0005       _EE_WriteEnable
 2786:000E       _EE_WriteProtect
 2FAE:012A       _EmptPage
 2FAE:C402       _environ
 2FAE:D5A0       _en_bot
 0000:33A0       _eof
 2FAE:007F       _errno
 2FAE:BC24       _err_3
 2FAE:BC6C       _err_4
 2FAE:1313       _err_F425
 0000:1307       _exit
 0000:10C3       _exp
 2FAE:4847       _ex_m
 2FAE:4843       _ex_p
 0000:05FF       _fabs
 0000:24C9       _farfree
 0000:25DD       _farmalloc
 0000:2741       _farrealloc
 2FAE:BA6E       _fCheck
 2FAE:0B7B       _FctBern
 2FAE:BCA9       _fCtsControlMode_1
 2FAE:BD1B       _fCtsControlMode_5
 2FAE:BD5D       _fCtsControlMode_6
 2FAE:BD9F       _fCtsControlMode_7
 2FAE:3C97       _fct_offs
 2FAE:3C9B       _fct_offs_L
 0000:158E       _feof
 0000:159D       _ferror
 046D:AC56       _ffgets_com_ICP
 1A5E:8A29       _ffgets_com_rtu
 1061:0948       _ffgets_host
 1061:01B7       _ffgets_no_com_ICP
 1A5E:AACA       _ffgets_SlvRTU
 0000:3417       _fflush
 2FAE:01B4       _ff_answ_com
 2FAE:01C8       _ff_answ_flt
 2FAE:01A0       _ff_gets_com
 2FAE:E338       _FF_par
 2FAE:3383       _ff_putch
 2FAE:019C       _ff_serv
 2FAE:0B83       _ff_serv_N
 2FAE:732E       _ff_Slv
 2FAE:14BD       _ff_valve
 1A5E:BB49       _ff_we_slv
 1A5E:BB70       _ff_wr_strt_evt
 0000:376A       _fgetc
 0000:3858       _fgetchar
 2FAE:4E25       _fict_ftmp
 2FAE:4E2D       _fict_int1
 2FAE:4E29       _fict_itmp
 2FAE:1FFA       _fict_long
 2FAE:1675       _fict_npn
 2FAE:4E2B       _fict_sv
 2FAE:1E8D       _fict_TSD
 2FAE:5ABF       _file0_lgth
 2FAE:5AAB       _filename
 2FAE:DE6A       _file_addr
 2FAE:5AC3       _file_lgth
 2FAE:5ACB       _file_name
 2FAE:5AC7       _file_ptr
 2FAE:6B4C       _fillingFlag
 2FAE:1757       _flagE_UZA
 2FAE:0130       _flagFirstTurnOn
 2FAE:1759       _flagS_DLT
 2FAE:1753       _flagS_ES
 2FAE:1755       _flagS_UZA
 2FAE:7076       _FlagWinSum
 2FAE:0B61       _flag_AD
 2FAE:7070       _flag_chg
 2FAE:178D       _flag_continue
 2FAE:2F0B       _flag_Deb
 2FAE:1781       _flag_dlv_fst
 2FAE:1C41       _Flag_dns_flow
 2FAE:2F09       _flag_echo_host
 2FAE:6D2F       _flag_esc
 2FAE:16B7       _flag_ext_t
 2FAE:1411       _flag_fill_ok
 2FAE:14A1       _flag_flch
 2FAE:5937       _flag_flow
 2FAE:06E3       _flag_fn
 2FAE:149D       _flag_fst_gun
 2FAE:6D11       _Flag_f_corr
 2FAE:1413       _flag_gas
 2FAE:14A3       _flag_gun
 2FAE:0134       _flag_H
 2FAE:2F0D       _flag_host_send
 2FAE:14BB       _Flag_Low
 2FAE:6D13       _flag_mass
 2FAE:0B4F       _Flag_mass
 2FAE:1083       _flag_mvd_fst
 2FAE:1085       _flag_mvd_ton
 2FAE:148F       _flag_nal
 2FAE:1409       _flag_O0
 2FAE:140B       _flag_O1
 2FAE:140D       _flag_O3
 2FAE:140F       _flag_pool
 2FAE:4CA1       _flag_print_licp
 2FAE:0132       _flag_prn
 2FAE:1783       _flag_prn_mass
 2FAE:6C61       _flag_prok
 2FAE:175B       _flag_rcv
 2FAE:796A       _flag_set_out
 2FAE:7898       _Flag_sl3
 2FAE:789A       _Flag_sl31
 2FAE:7332       _flag_Slv
 2FAE:7362       _flag_slvrtu
 2FAE:70A2       _flag_Slv_1
 2FAE:7960       _flag_wd_err
 2FAE:7334       _flag_ZT
 27DB:0020       _FlashCmd
 27D5:0008       _FlashErase
 2FAE:BA72       _FlashId
 27DB:010D       _FlashReadId
 27DB:0039       _FlashResetToReadMode
 2FAE:BA74       _FlashSize
 27DB:000A       _FlashUnlock
 27F2:000D       _FlashWrite
 2FAE:72BA       _flash_offset
 2FAE:EBF2       _Flash_ptr
 2FAE:72B8       _flash_seg
 2FAE:E356       _fle
 2FAE:6D0F       _flg_ch
 2FAE:5A07       _flg_prn_reg
 2FAE:14C5       _Flow_beg
 2FAE:5A67       _flow_D
 2FAE:5A0B       _Flow_dem
 2FAE:14CD       _Flow_min
 2FAE:14D9       _Flow_min1
 2FAE:1505       _Flow_min1L
 2FAE:14E5       _Flow_min2
 2FAE:1511       _Flow_min2L
 2FAE:14F9       _Flow_minL
 2FAE:141D       _flow_mom
 2FAE:14F1       _Flow_nom
 2FAE:151D       _Flow_nomL
 2FAE:594D       _Flow_off
 2FAE:5939       _Flow_on
 0000:34E4       _flushall
 2FAE:C6D8       _fl_chp
 2FAE:1751       _fl_EQ
 2FAE:1F10       _FL_err
 2FAE:174F       _fl_GO
 2FAE:1C45       _fl_GO_t
 2FAE:363F       _fl_id
 2FAE:3643       _fl_id1
 2FAE:5AD7       _fl_md_fst
 2FAE:1489       _fl_MI
 2FAE:05C9       _fl_mmi_new
 2FAE:05CB       _fl_mmi_new1
 2FAE:1033       _fl_rd_err
 2FAE:7364       _fl_slv_out
 2FAE:1311       _fl_sl_tim3
 2FAE:136F       _fl_take_temp
 2FAE:4AF1       _fl_trace
 2FAE:4AF9       _fl_trace_loop
 2FAE:1E7D       _fl_tsd_new
 2FAE:1E81       _fl_tsd_new1
 2FAE:1487       _fl_VI
 2FAE:4A51       _fl_wr_eee
 2FAE:6CDD       _fl_zeroing
 2FAE:05E5       _fn_MMI
 2FAE:05D9       _font_arr
 0000:3526       _fprintf
 0000:3957       _fputc
 0000:3AEA       _fputchar
 0000:24C9       _free
 2FAE:BCAB       _fRtsControlMode_1
 2FAE:BD1D       _fRtsControlMode_5
 2FAE:BD5F       _fRtsControlMode_6
 2FAE:BDA1       _fRtsControlMode_7
 0000:35C4       _fseek
 046D:1FBA       _fstin
 2FAE:C82C       _fst_beg
 2FAE:06EF       _fst_in_n
 2FAE:06ED       _fst_n
 2FAE:DA3A       _fst_str
 0000:3644       _ftell
 2FAE:6B52       _ftmp_DP
 2FAE:E358       _ftmp_na
 2FAE:DA20       _ftmp_naMMI
 2FAE:E322       _ftmp_p
 1A5E:A8EC       _fun_tim_u
 1061:02CE       _f_123
 046D:2849       _f_7017C
 046D:2CE7       _f_7017_Flt
 046D:2A3C       _f_7017_rd_all_hex
 046D:2D98       _f_7060
 046D:3788       _f_7060_Flt
 046D:32B2       _f_7060_rd
 1A5E:BF9D       _f_acces_code
 1A5E:BFE5       _f_acces_page
 1A5E:893D       _f_after_MMI
 046D:9FD0       _f_alarm
 1A5E:B905       _f_alm_stop
 1061:1B66       _f_ans_Licp_cfg
 1061:1C7F       _f_ans_Licp_Flt
 1A5E:BE1F       _f_Baud_slv
 1A5E:88F8       _f_before_MMI
 2FAE:5969       _f_Beg
 2FAE:130B       _f_BIG_P
 1061:24B7       _f_bridge_24
 1061:2515       _f_bridge_34
 1A5E:B9C1       _f_CE_slv
 046D:ADD4       _f_check_crc_ICP
 1A5E:8BFD       _f_check_crc_RTU
 1061:25C2       _f_check_id
 1A5E:8AF4       _f_chg_toRTU
 1061:6B7F       _f_chk_EEE_CRC
 046D:1888       _f_clr_scr_c_MMI
 046D:183F       _f_clr_scr_MMI
 046D:A79C       _f_clr_TSD
 046D:B37B       _f_cl_error
 1A5E:BE0B       _f_cmd_prn
 046D:BC3D       _f_cnt_DnsA
 1061:79E0       _f_count_cf
 046D:6590       _f_ctrl_v1
 046D:6A82       _f_ctrl_v2
 046D:03B3       _f_cycle
 046D:0429       _f_cycle0
 046D:045B       _f_cycle1
 046D:01A6       _f_cycle_cmn
 1A5E:0EF2       _f_disp_error
 1061:0EAA       _f_dis_set
 046D:8E5B       _f_dlv_liq
 2FAE:1C3D       _F_Dns_off
 1061:2573       _f_dnum
 2FAE:16F3       _f_Drive_Rn_chk
 2FAE:16FB       _f_Drive_Run
 2FAE:16F7       _f_Drive_Stop
 2FAE:16EF       _f_Drive_St_chk
 1061:2206       _f_drv_list
 1A5E:151C       _f_drv_list_MMI
 1A5E:15FF       _f_drv_stat_MMI
 1A5E:C02D       _f_dsp_16
 1A5E:000F       _f_d_ESC
 1061:6A48       _f_ee_num_init
 046D:0CDC       _f_empty
 1061:046C       _f_empty_ans_echo
 1061:1B2A       _f_empty_ans_Licp
 046D:AD80       _f_empty_gets
 046D:6C7E       _f_enable_cnt
 046D:84EA       _f_en_reg_valv
 046D:7982       _f_en_two_valv
 046D:7E11       _f_en_two_valvL
 046D:8E0D       _f_fict
 046D:8E3D       _f_fict_run
 046D:8E1D       _f_fict_stop
 046D:74C4       _f_flow_chk
 1A5E:BAB3       _f_flow_mod
 1A5E:B97E       _f_fls
 1A5E:AA0A       _f_free_SlvBuf
 1A5E:9896       _f_get_astr
 1A5E:A8C2       _f_get_dat_n
 1A5E:A7D8       _f_get_dat_s
 1A5E:A34F       _f_get_d_dat
 1A5E:A001       _f_get_flash_p
 046D:4A32       _f_get_float
 046D:49DF       _f_get_float_i
 1A5E:999B       _f_get_fst_stor
 046D:B83A       _f_get_gamma
 046D:B338       _f_get_icp_error
 046D:49A4       _f_get_int
 046D:4E3E       _f_get_intS
 046D:4DB9       _f_get_long
 1A5E:9A33       _f_get_lst_stor
 1A5E:8E00       _f_get_max_n_arch
 1061:22B6       _f_get_mod_str
 046D:0001       _f_get_nb
 1A5E:A110       _f_get_next_seg
 1A5E:ACCC       _f_get_numRTU2
 1A5E:AD14       _f_get_numRTU7
 1A5E:A17A       _f_get_nxt_seg
 1A5E:A1B4       _f_get_prev_seg
 046D:B8C8       _f_get_ref_Dns
 1A5E:A98F       _f_get_SlvBuf
 046D:BA26       _f_get_T
 1A5E:A263       _f_get_time
 1A5E:A2DE       _f_get_time_t
 046D:58B6       _f_get_unit
 046D:B74B       _f_get_VCF
 1061:037A       _f_host
 046D:AEFB       _f_icp_error
 046D:B09B       _f_icp_errS
 1061:2453       _f_icp_hlp
 046D:8BC3       _f_ik
 1061:0DC1       _f_inhex
 046D:3171       _f_init_7060
 046D:BC19       _f_init_DNSA
 046D:3839       _f_init_Fl_m
 046D:8C27       _f_init_mki
 046D:452D       _f_init_MVD
 1061:7462       _f_init_reg_F
 1061:6D89       _f_init_reg_P
 1061:16B1       _f_init_TSD
 046D:75B6       _f_init_valve
 1061:0BAE       _f_innum
 046D:A27C       _f_inp7188
 1061:2894       _f_intr
 1A5E:AD5A       _f_intr_SlvRTU
 1A5E:B532       _f_int_fnc
 046D:6767       _f_int_v2
 1061:0A5E       _f_inw
 1A5E:B4F6       _f_is_float
 1A5E:B4CA       _f_is_int
 1061:0E51       _f_lim
 1061:1715       _f_look_ICP
 1061:1CA3       _f_look_RTU
 1061:9D14       _f_md5
 1061:6918       _f_menu
 1A5E:34E1       _f_menu_MMI
 1A5E:C0E3       _f_mirr
 046D:15D5       _f_MMI
 046D:1E1F       _f_mmi_err
 046D:1E35       _f_MMI_Flt
 046D:1ED4       _f_MMI_KBD_ans
 046D:1E71       _f_MMI_SetAns
 1061:233A       _f_mod_list
 1A5E:16F1       _f_mod_list_MMI
 046D:385E       _f_MVD
 046D:58FB       _f_MVD_1
 046D:5CD2       _f_MVD_2
 046D:623D       _f_MVD_3
 046D:6145       _f_MVD_31
 046D:6E03       _f_MVD_cor
 1A5E:2D50       _f_MVD_M1
 1A5E:2D6C       _f_MVD_M1f
 1A5E:3019       _f_MVD_M1s
 1A5E:3100       _f_MVD_M2
 1A5E:3138       _f_MVD_M3
 1A5E:3402       _f_MVD_M3_Pr
 1A5E:311C       _f_MVD_MM2
 1A5E:335B       _f_MVD_MM4
 046D:4E78       _f_MVD_rd
 046D:40F1       _f_MVD_rd_t
 046D:42FD       _f_MVD_rd_tS
 046D:3E3D       _f_MVD_WR
 2FAE:4B11       _f_ns
 1061:1625       _f_ns_count
 2FAE:4C01       _f_num_var
 1A5E:C167       _f_OFP
 1A5E:C64D       _f_OFP_rd
 1A5E:C464       _f_OFP_rd_t
 1A5E:C315       _f_OFP_WR
 046D:0DCF       _f_one_sec
 046D:BEE2       _f_one_shot
 046D:BEF2       _f_out
 046D:AE55       _f_prepare7000
 1A5E:8C60       _f_prepareRTU
 1A5E:8CBF       _f_prepareRTU1
 1A5E:9B18       _f_prepare_evt
 1A5E:A280       _f_prepare_t
 046D:6BAD       _f_prep_bern
 046D:6ADD       _f_prep_int_Mass
 046D:669F       _f_prep_int_MassF
 046D:660C       _f_prep_int_v2
 046D:AAC8       _f_prep_TSD
 1A5E:8E93       _f_print_a_str
 046D:0D82       _f_print_dd
 1A5E:A6CA       _f_print_d_str
 1061:1FF0       _f_print_que
 1A5E:8ECA       _f_print_str_a
 046D:A812       _f_print_TSD
 1A5E:1ED7       _f_prn_5day
 1A5E:0039       _f_prn_begin
 1A5E:06CC       _f_prn_CRC_error
 1A5E:1849       _f_prn_current
 1A5E:1CD7       _f_prn_date
 1A5E:191A       _f_prn_den_t
 1A5E:0E1E       _f_prn_error
 1A5E:011F       _f_prn_ID
 1A5E:1AA5       _f_prn_lst_hour
 1A5E:0DCF       _f_prn_MassSt_dlv
 1A5E:20F0       _f_prn_mmi_a
 1A5E:0768       _f_prn_mode
 1A5E:04F2       _f_prn_no_sig_H
 1A5E:02B1       _f_prn_no_sig_L
 1A5E:07CA       _f_prn_proc
 1A5E:01FA       _f_prn_slv1
 1061:0428       _f_prompt
 046D:B60A       _f_queue_chk
 046D:B450       _f_queue_clr
 046D:B6D3       _f_queue_Flt
 046D:B655       _f_queue_free
 046D:B42C       _f_queue_init
 046D:B57E       _f_queue_put
 046D:119C       _f_rd_cor
 1061:6C74       _f_rd_eee
 1A5E:C097       _f_reg_cmn
 1A5E:C07B       _f_reg_cmn_clk
 1A5E:C0BB       _f_reg_cmn_h
 1061:70A9       _f_reg_D
 1061:7585       _f_reg_F
 1061:7289       _f_reg_I
 1061:6E1D       _f_reg_P
 046D:7F20       _f_reg_valve
 1061:65F1       _f_rep
 046D:6A26       _f_reset_zer_MVD
 1061:19C8       _f_result_Licp
 1061:1E56       _f_result_Licp_RTU
 2FAE:4E07       _f_res_id
 046D:18B3       _f_rev_scr_MMI
 046D:A7D7       _f_rev_TSD
 046D:8DF9       _f_Rn_chk_fict
 1A5E:B923       _f_rst_slv
 1061:03C9       _f_send_to_Host
 1061:08A0       _f_send_to_Host_rtu
 1061:04A3       _f_send_to_Host_sk
 046D:A040       _f_sens
 1A5E:B9E7       _f_SetOut_slv
 046D:4BD5       _f_set_float
 046D:4D8D       _f_set_int
 046D:4D39       _f_set_long
 1A5E:BEBB       _f_set_slv
 046D:67D7       _f_sim_MVD
 046D:67E7       _f_sim_MVD0
 1A5E:A966       _f_SlaveRTU
 1A5E:BB89       _f_start_dlv
 1A5E:BC9C       _f_start_dlv11
 046D:6BFE       _f_stop_cnt
 1A5E:B875       _f_stop_dlv
 1A5E:AA29       _f_stor_Slv
 046D:8DE4       _f_St_chk_fict
 046D:2839       _f_tbl_1
 046D:0CA0       _f_timer
 046D:0CF2       _f_time_dd
 046D:A34E       _f_TSD
 046D:A6EB       _f_TSD_flt
 046D:A5BB       _f_TSD_rd
 046D:A2F4       _f_tst
 046D:A312       _f_tst1
 046D:A330       _f_tst2
 046D:764F       _f_two_valve
 046D:7ADC       _f_two_valveL
 046D:867F       _f_UP_DN
 046D:8C80       _f_var_i
 1061:000B       _f_WDOG
 1061:0259       _f_WD_end
 1A5E:BB29       _f_WE_slv
 1061:6A76       _f_wrt_eee
 1A5E:8D54       _f_wr_astr
 046D:1058       _f_wr_cor
 1A5E:8D1F       _f_wr_evt
 1A5E:B9FB       _f_Zero_slv
 0000:14D4       _getc
 0000:1505       _getchar
 046D:0141       _getch_host
 2701:0007       _GetDate
 2CD0:0006       _GetDi1
 2CD2:0009       _GetDi2
 0000:3864       _getenv
 2A83:00C4       _GetInputBufFreeSize
 29DC:00E8       _GetInputBufFreeSize_1
 2B07:00DC       _GetInputBufFreeSize_5
 2BB2:00DE       _GetInputBufFreeSize_6
 2C5D:00E0       _GetInputBufFreeSize_7
 2706:0004       _GetTime
 270C:000B       _GetTimeDate
 29DC:0059       _GetTxBufferFreeSize_1
 2A83:0035       _GetTxBufferFreeSize_2
 2874:0043       _GetTxBufferFreeSize_3
 2929:0049       _GetTxBufferFreeSize_4
 2B07:004D       _GetTxBufferFreeSize_5
 2BB2:004F       _GetTxBufferFreeSize_6
 2C5D:0051       _GetTxBufferFreeSize_7
 2701:0039       _GetWeekDay
 1A5E:A1E3       _get_vdate
 2FAE:0190       _ghj
 0000:2C60       _gmtime
 2FAE:D620       _HCompos
 2FAE:D624       _HDens
 2FAE:BDC8       _hex_to_ascii
 2FAE:5A0F       _Hop
 2FAE:5A13       _Hop_cur
 2FAE:2F6D       _Host
 2FAE:2FB1       _Host_Rqst
 2FAE:3055       _Host_Rqst_rtu
 2FAE:30F9       _Host_Rqst_sk
 2FAE:336D       _host_wd_sw
 2FAE:D628       _HTemp
 2FAE:F57A       _I11m
 2FAE:F578       _I12m
 2FAE:F4A8       _i1_slv
 2FAE:7C92       _i2_OFP
 2FAE:F4A6       _i2_slv
 2FAE:06F1       _I7017C
 2FAE:08C1       _i7017_dat
 2FAE:08C9       _i7017_inp_err
 2FAE:0779       _I7017_Rqst
 2FAE:0907       _I7060
 2FAE:C7FC       _i7060it
 2FAE:0B31       _I7060_fl
 2FAE:0AD7       _i7060_fn
 2FAE:D638       _i7060_inp
 2FAE:D644       _i7060_inph
 2FAE:D648       _i7060_inpl
 2FAE:0AED       _i7060_inp_err
 2FAE:D63C       _i7060_out
 2FAE:D634       _i7060_outc
 2FAE:0AE9       _i7060_out_err
 2FAE:098F       _I7060_Rqst
 2FAE:0AF1       _i7060_seq
 2FAE:0AE3       _i7060_sw
 2FAE:D640       _i7060_wdf
 2FAE:0ADB       _I7060_wd_E
 2FAE:0ADF       _I7060_wd_VV
 2FAE:1EB4       _ICP_dd
 2FAE:1ED8       _ICP_error
 2FAE:1EF4       _ICP_error_c
 2FAE:1F12       _ICP_fict
 2FAE:1ED6       _icp_lst_max
 2FAE:EBFA       _ICP_MOD
 2FAE:4CAD       _ICP_mod_fnd
 2FAE:E300       _id_i3
 2FAE:4E0B       _id_ok
 2FAE:149B       _igun_1
 2FAE:1091       _ii_MVD_fl
 2FAE:108F       _ii_MVD_i
 2FAE:10DF       _ii_MVD_max
 2FAE:BC08       _In7188Buf_3
 2FAE:BC50       _In7188Buf_4
 2FAE:BC14       _InBeginIdx_3
 2FAE:BC5C       _InBeginIdx_4
 2FAE:BCA1       _InBufSize_1
 2FAE:BCE3       _InBufSize_2
 2FAE:BC10       _InBufSize_3
 2FAE:BC58       _InBufSize_4
 2FAE:BD13       _InBufSize_5
 2FAE:BD55       _InBufSize_6
 2FAE:BD97       _InBufSize_7
 2FAE:BC99       _InData_1
 2FAE:BCDB       _InData_2
 2FAE:BD0B       _InData_5
 2FAE:BD4D       _InData_6
 2FAE:BD8F       _InData_7
 2FAE:BC16       _InEndIdx_3
 2FAE:BC5E       _InEndIdx_4
 2FAE:BC94       _InInIdx_1
 2FAE:BCD6       _InInIdx_2
 2FAE:BD06       _InInIdx_5
 2FAE:BD48       _InInIdx_6
 2FAE:BD8A       _InInIdx_7
 26E0:0000       _Init5DigitLed
 2788:000D       _InitEEPROM
 273B:00C6       _InitLib
 046D:129D       _init_win_sum
 2FAE:BC96       _InOutIdx_1
 2FAE:BCD8       _InOutIdx_2
 2FAE:BD08       _InOutIdx_5
 2FAE:BD4A       _InOutIdx_6
 2FAE:BD8C       _InOutIdx_7
 2FAE:0905       _INP_7017
 2FAE:1C47       _INP_7188
 2FAE:15AD       _INP_inv
 2FAE:15B3       _INP_MSK_OK
 2FAE:15B5       _INP_MSK_OK_L
 2FAE:7C9C       _INP_OFP
 2FAE:15AB       _INP_VAR
 2FAE:15B1       _INP_VARi0
 2FAE:15AF       _INP_VAR_c
 2815:0001       _InstallCom
 29DC:015A       _InstallComInputData_1
 2A83:0110       _InstallComInputData_2
 2874:00CA       _InstallComInputData_3
 2929:00D0       _InstallComInputData_4
 2B07:014E       _InstallComInputData_5
 2BB2:0150       _InstallComInputData_6
 2C5D:0152       _InstallComInputData_7
 2FAE:BAA2       _InstallCom_
 29DC:0501       _InstallCom_1
 2A83:02AC       _InstallCom_2
 2874:02DC       _InstallCom_3
 2929:02E2       _InstallCom_4
 2B07:04F5       _InstallCom_5
 2BB2:04F7       _InstallCom_6
 2C5D:04F9       _InstallCom_7
 2847:00AB       _InstallCom_DMA_3
 28FD:00A1       _InstallCom_DMA_4
 27F9:012D       _InstallUserTimerFunction_ms
 27F9:00D6       _InstallUserTimerFunction_us
 2FAE:3397       _intrpr
 2FAE:BA2A       _IntVect
 2FAE:15B9       _int_fict_11
 2FAE:D5C2       _inv_msk
 2FAE:1401       _io_1
 0000:13ED       _isalnum
 0000:1412       _isalpha
 0000:13FF       _isascii
 0000:15AC       _isatty
 0000:1424       _iscntrl
 281E:0004       _IsCom
 29C9:0004       _IsComOutBufEmpty_1
 2A73:0008       _IsComOutBufEmpty_2
 28BF:0001       _IsComOutBufEmpty_3
 2974:0007       _IsComOutBufEmpty_4
 2AF3:0008       _IsComOutBufEmpty_5
 2B9E:000A       _IsComOutBufEmpty_6
 2C49:000C       _IsComOutBufEmpty_7
 2FAE:BB02       _IsCom_
 29C7:0009       _IsCom_1
 2A71:000D       _IsCom_2
 2871:000D       _IsCom_3
 2927:0003       _IsCom_4
 2AF1:000D       _IsCom_5
 2B9C:000F       _IsCom_6
 2C48:0001       _IsCom_7
 2847:0245       _IsCom_DMA_3
 28FD:023B       _IsCom_DMA_4
 0000:1436       _isdigit
 0000:1448       _isgraph
 2718:000A       _IsLeapYear
 0000:1461       _islower
 0000:1473       _isprint
 0000:148C       _ispunct
 0000:149E       _isspace
 282B:000D       _IsTxBufEmpty
 2FAE:BBA2       _IsTxBufEmpty_
 2A4C:0009       _IsTxBufEmpty_1
 2ACB:000B       _IsTxBufEmpty_2
 28E5:000E       _IsTxBufEmpty_3
 29A1:000D       _IsTxBufEmpty_4
 2B76:000D       _IsTxBufEmpty_5
 2C21:000F       _IsTxBufEmpty_6
 2CCD:0001       _IsTxBufEmpty_7
 0000:14B0       _isupper
 0000:14C2       _isxdigit
 2FAE:C7FA       _itmp7060
 2FAE:1525       _itmp_vv
 2FAE:D59A       _itt1
 2FAE:D598       _itt2
 2FAE:D596       _itt3
 2FAE:D594       _itt4
 2FAE:C6B6       _iv_msk
 2FAE:59CD       _I_dem
 2FAE:1429       _i_dens
 2FAE:D572       _i_empty
 2FAE:D59E       _i_ish
 2FAE:4AF3       _i_nn
 2FAE:4AED       _i_nn_d
 2FAE:4BF1       _i_num_var
 2FAE:E3E0       _K0
 2FAE:E3DC       _K1
 2FAE:E3D8       _K2
 2FAE:E3D4       _K3
 2FAE:E3D0       _Kd0
 2FAE:E3CC       _Kd1
 2FAE:E3C8       _Kd2
 2FAE:E3C4       _Kd3
 2FAE:59A9       _kd_d
 2FAE:59A5       _kd_i
 2FAE:59A1       _kd_p
 2FAE:1C43       _key__1
 2FAE:E3B0       _Kf0
 2FAE:E3A0       _Kf0L
 2FAE:E3AC       _Kf1
 2FAE:E39C       _Kf1L
 2FAE:E3A8       _Kf2
 2FAE:E398       _Kf2L
 2FAE:E3A4       _Kf3
 2FAE:E394       _Kf3L
 2FAE:5A1F       _kf_d
 2FAE:5A2B       _kf_dL
 2FAE:5A1B       _kf_i
 2FAE:5A27       _kf_iL
 2FAE:5A17       _kf_p
 2FAE:5A23       _kf_pL
 2FAE:E3C0       _Ki0
 2FAE:E3BC       _Ki1
 2FAE:E3B8       _Ki2
 2FAE:E3B4       _Ki3
 2FAE:59D9       _ki_d
 2FAE:59D5       _ki_i
 2FAE:59D1       _ki_p
 2FAE:2056       _KK0
 2FAE:208E       _KK1
 2FAE:5975       _k_d
 2FAE:1421       _k_Den
 2FAE:145B       _k_Den0_Off
 2FAE:145F       _k_Den0_On
 2FAE:6D1F       _k_dens
 2FAE:1463       _k_Den_Off
 2FAE:1467       _k_Den_On
 2FAE:708C       _k_ext
 2FAE:708E       _k_ext1
 2FAE:5971       _k_i
 2FAE:0FFB       _k_Mas
 2FAE:0B51       _K_mul_F
 2FAE:F5BC       _k_mv_tmp
 2FAE:6D1B       _k_m_flow
 2FAE:596D       _k_p
 2FAE:13DF       _k_Test
 2FAE:1375       _k_vol
 2FAE:6D17       _k_v_flow
 2FAE:7342       _Last_evt
 2FAE:149F       _last_flch
 2FAE:0136       _last_out
 26DF:0005       _LedToggle
 2FAE:E27E       _len
 2FAE:10E3       _lerr_MVD
 2FAE:5ACF       _lgth_fl
 2FAE:EBF8       _licp_addr
 2FAE:4CA7       _licp_amax
 2FAE:4CA9       _licp_crc_flag
 2FAE:EBF6       _licp_fnd
 2FAE:4CA3       _licp_port
 2FAE:4CB7       _LICP_Rqst
 2FAE:4D5B       _LICP_Rqst_RTU
 2FAE:4C9F       _licp_sw
 2FAE:4CAB       _licp_t_conf
 2FAE:59B9       _LIMd_M
 2FAE:59B5       _LIMd_P
 2FAE:59E9       _LIMi_M
 2FAE:59E5       _LIMi_P
 2FAE:5A47       _LIM_FLOW_M
 2FAE:5A57       _LIM_FLOW_ML
 2FAE:5A43       _LIM_FLOW_P
 2FAE:5A53       _LIM_FLOW_PL
 2FAE:5985       _LIM_M
 2FAE:5981       _LIM_P
 2FAE:5989       _LIM_P_c
 2FAE:6D7F       _list1_dsr
 2FAE:7053       _list2_dsr
 2FAE:178F       _list_avt
 2FAE:2F4D       _list_liq
 2FAE:4E0D       _list_mnu
 2FAE:4B25       _list_ns
 2FAE:4B91       _list_ns_type
 2FAE:2F45       _list_pt
 2FAE:1C0F       _list_rcv
 2FAE:7626       _list_Slv_flt
 2FAE:736E       _list_Slv_int
 2FAE:76C2       _list_Slv_lng
 2FAE:6D37       _list_un_mmi
 2FAE:5AD3       _ll_fl
 2FAE:E2FC       _lng_chr
 0000:2C79       _localtime
 0000:1131       _log
 280E:000F       _LongDiv
 2FAE:BC79       _LossCnt_0_4
 2FAE:BC35       _LossCnt_1_3
 2FAE:BC7D       _LossCnt_1_4
 2FAE:BC39       _LossCnt_2_3
 2FAE:BC81       _LossCnt_2_4
 2FAE:BC31       _LossCnt__3
 0000:165F       _lseek
 2FAE:BCD0       _LsrError_1
 2FAE:BD00       _LsrError_2
 2FAE:BD42       _LsrError_5
 2FAE:BD84       _LsrError_6
 2FAE:BDC6       _LsrError_7
 2FAE:F5F8       _ltime
 2FAE:F5FC       _ltime0
 2FAE:D580       _ltt1
 2FAE:D57C       _ltt2
 2FAE:D578       _ltt3
 2FAE:D574       _ltt4
 2FAE:08D5       _Lvl_7017
 046D:049D       _main
 0000:25D3       _malloc
 2FAE:0FF7       _Mas2
 2FAE:10EB       _MassI_beg
 2FAE:6C51       _MassStamp
 2FAE:EBEE       _MassTT
 2FAE:2020       _MassT_old
 2FAE:20EE       _Mass_cmn
 2FAE:14D1       _Mass_min
 2FAE:14DD       _Mass_min1
 2FAE:1509       _Mass_min1L
 2FAE:14E9       _Mass_min2
 2FAE:1515       _Mass_min2L
 2FAE:14FD       _Mass_minL
 2FAE:2024       _mas_ch1_cur
 2FAE:2018       _mas_ch1_cur_old
 2FAE:2044       _mas_ch1_end
 2FAE:2034       _mas_ch1_start
 2FAE:2010       _mas_ch_cur
 2FAE:2008       _mas_ch_cur_old
 0000:1057       _matherr
 2FAE:BA0A       _MaxDay
 2FAE:5A4F       _maxF_errM
 2FAE:5A5F       _maxF_errML
 2FAE:5A4B       _maxF_errP
 2FAE:5A5B       _maxF_errPL
 2FAE:59B1       _maxPd_errM
 2FAE:59AD       _maxPd_errP
 2FAE:59E1       _maxPi_errM
 2FAE:59DD       _maxPi_errP
 2FAE:597D       _maxP_errM
 2FAE:5979       _maxP_errP
 2FAE:054C       _max_list1
 2FAE:7074       _max_par
 1061:80E9       _MD5Final
 1061:7F5E       _MD5Init
 1061:7FC3       _MD5Update
 2FAE:7304       _mdat
 2FAE:72F2       _mdat0
 0000:38D4       _memcpy
 0000:391C       _memset
 2FAE:34ED       _mem_ptr
 2FAE:72E0       _mhour00
 0000:2E83       _mktime
 2FAE:05E7       _MMI
 2FAE:F5B0       _MMICompos
 046D:1A2D       _MmiCursorOff
 2FAE:F5B4       _MMIDens
 046D:1596       _MmiGetch
 046D:1A4A       _MmiGotoxy
 046D:157A       _MmiKbhit
 2FAE:C8AE       _mmikey
 2FAE:0567       _mmikeycode
 046D:1B2C       _MmiPrintf
 046D:1A6A       _MmiPutch
 046D:1AA7       _MmiPuts
 046D:1A10       _MmiShowCursor
 2FAE:F5B8       _MMITemp
 2FAE:05E1       _mmix
 2FAE:05E3       _mmiy
 2FAE:706E       _mmi_com
 2FAE:7066       _mmi_flag
 2FAE:0124       _MMI_inp_err
 2FAE:06E7       _mmi_key_in
 2FAE:06E9       _mmi_key_out
 2FAE:0126       _MMI_out_err
 2FAE:7063       _mmi_point
 2FAE:7064       _mmi_prm
 2FAE:062B       _MMI_Rqst
 2FAE:DA59       _MMI_str
 2FAE:706C       _mmi_str
 2FAE:05C7       _mmi_sw
 2FAE:0566       _mn_fnt
 2FAE:10E1       _ModeFill
 2FAE:146D       _ModeReduce
 2FAE:6B56       _mode_hst
 2FAE:5A09       _mode_i
 2FAE:1303       _mode_mvd
 2FAE:6D55       _mode_prn
 2FAE:6C63       _mode_prok
 2FAE:5935       _mode_r
 2FAE:0B69       _mode_refD
 2FAE:0B67       _mode_temp
 046D:19B1       _MoveToXY
 2FAE:0B35       _msk4
 2FAE:0B45       _msk8
 2FAE:1637       _msk_ik
 2FAE:2F0F       _msk_int
 2FAE:0B87       _MVD
 2FAE:E364       _mvd
 2FAE:C7F2       _MVDit
 2FAE:13DB       _MVDT1
 2FAE:1035       _MVD_fl
 2FAE:3377       _MVD_fl_ord
 2FAE:1007       _MVD_fn
 2FAE:1093       _MVD_i
 2FAE:100F       _MVD_inp_err
 2FAE:1045       _MVD_Rd_Dens
 2FAE:1039       _MVD_Rd_err
 2FAE:103F       _MVD_Rd_FlowM
 2FAE:1051       _MVD_Rd_FlowV
 2FAE:1069       _MVD_Rd_MassI
 2FAE:105D       _MVD_Rd_MassT
 2FAE:1057       _MVD_Rd_Press
 2FAE:1075       _MVD_Rd_Slot
 2FAE:104B       _MVD_Rd_Temp
 2FAE:106F       _MVD_Rd_VolI
 2FAE:1063       _MVD_Rd_VolT
 2FAE:337B       _mvd_reg_n
 2FAE:337F       _mvd_reg_q
 2FAE:0C0F       _MVD_Rqst
 2FAE:0D57       _MVD_Rqst_T
 2FAE:1013       _MVD_seq
 2FAE:100B       _MVD_sw
 2FAE:107B       _MVD_t_err
 2FAE:107F       _MVD_t_rslt
 2FAE:BCB8       _NeedXoff_1
 2FAE:BC21       _NeedXoff_3
 2FAE:BC69       _NeedXoff_4
 2FAE:BD2A       _NeedXoff_5
 2FAE:BD6C       _NeedXoff_6
 2FAE:BDAE       _NeedXoff_7
 2FAE:05D1       _nm_stamp
 2FAE:05D5       _nm_time
 2FAE:E30C       _nn
 2FAE:7072       _nn_chg
 2FAE:795C       _nn_comb
 2FAE:4B21       _ns_fict
 2FAE:4B1D       _ns_fictf
 281E:0001       _NullIsCom
 2FAE:1589       _num_in1
 2FAE:159B       _num_in10
 2FAE:159D       _num_in11
 2FAE:159F       _num_in12
 2FAE:15A1       _num_in13
 2FAE:15A3       _num_in14
 2FAE:15A5       _num_in15
 2FAE:158B       _num_in2
 2FAE:158D       _num_in3
 2FAE:158F       _num_in4
 2FAE:1591       _num_in5
 2FAE:1593       _num_in6
 2FAE:1595       _num_in7
 2FAE:1597       _num_in8
 2FAE:1599       _num_in9
 2FAE:1577       _num_out1
 2FAE:1579       _num_out2
 2FAE:157B       _num_out3
 2FAE:157D       _num_out4
 2FAE:157F       _num_out5
 2FAE:1581       _num_out6
 2FAE:1583       _num_out7
 2FAE:1585       _num_out8
 2FAE:7068       _num_page
 2FAE:1677       _num_pnt
 2FAE:70A0       _n_adc_mm
 2FAE:6B50       _n_ASN
 2FAE:0192       _n_bcom
 2FAE:E354       _n_beg
 2FAE:E350       _n_dnn
 2FAE:1C71       _n_dot
 2FAE:E352       _n_end
 2FAE:4E03       _n_id
 2FAE:6D2B       _n_id_a
 2FAE:732A       _n_id_af
 2FAE:3FA1       _n_lst
 2FAE:795E       _n_max_rcv
 2FAE:6B4E       _n_pp
 2FAE:C7EE       _n_send
 2FAE:0B3D       _n_sht4
 2FAE:0B49       _n_sht8
 2FAE:76CA       _n_sl_flt
 2FAE:76CE       _n_sl_flt0
 2FAE:76CC       _n_sl_flt1
 2FAE:7622       _n_sl_int
 2FAE:7624       _n_sl_int1
 2FAE:76C6       _n_sl_lng
 2FAE:76C8       _n_sl_lng1
 2FAE:2EFE       _offset
 2FAE:3C93       _offs_cor
 2FAE:7974       _OFP
 2FAE:7970       _OFP_fl
 2FAE:7C94       _OFP_inp_err
 2FAE:7C8C       _OFP_RD
 2FAE:79FC       _OFP_Rqst
 2FAE:7B44       _OFP_Rqst_T
 2FAE:7C98       _OFP_t_err
 2FAE:BC27       _OldVectA
 2FAE:BC6F       _OldVectB
 2FAE:055A       _one_sec_time
 2FAE:6C6C       _otpusk
 2FAE:1457       _Out3_delay_off
 2FAE:BC0C       _Out7188Buf_3
 2FAE:BC54       _Out7188Buf_4
 2FAE:BC18       _OutBeginIdx_3
 2FAE:BC60       _OutBeginIdx_4
 2FAE:BCA3       _OutBufSize_1
 2FAE:BCE5       _OutBufSize_2
 2FAE:BC12       _OutBufSize_3
 2FAE:BC5A       _OutBufSize_4
 2FAE:BD15       _OutBufSize_5
 2FAE:BD57       _OutBufSize_6
 2FAE:BD99       _OutBufSize_7
 2FAE:BC9D       _OutData_1
 2FAE:BCDF       _OutData_2
 2FAE:BD0F       _OutData_5
 2FAE:BD51       _OutData_6
 2FAE:BD93       _OutData_7
 2FAE:BC1A       _OutEndIdx_3
 2FAE:BC62       _OutEndIdx_4
 2FAE:BCA5       _OutInIdx_1
 2FAE:BCE7       _OutInIdx_2
 2FAE:BD17       _OutInIdx_5
 2FAE:BD59       _OutInIdx_6
 2FAE:BD9B       _OutInIdx_7
 2FAE:BCA7       _OutOutIdx_1
 2FAE:BCE9       _OutOutIdx_2
 2FAE:BD19       _OutOutIdx_5
 2FAE:BD5B       _OutOutIdx_6
 2FAE:BD9D       _OutOutIdx_7
 2FAE:736A       _out_delay_slv
 2FAE:1407       _Out_en
 2FAE:7326       _OUT_Pmp
 2FAE:15A7       _OUT_VAR
 2FAE:15A9       _OUT_VARi0
 2FAE:15B7       _OUT_VAR_c
 2FAE:0AE7       _OUT_VAR_c_r
 2FAE:6D0D       _PageD
 2FAE:05CD       _page_MMI
 2FAE:05CF       _page_MMI_c
 2FAE:34A1       _par1
 2FAE:34A5       _par2
 2FAE:34A9       _par3
 2FAE:34AD       _par4
 2FAE:6D23       _pass1
 2FAE:6D27       _pass2
 2FAE:7080       _PassW
 2FAE:7088       _PassWm
 2FAE:707C       _Password
 2FAE:7084       _Password_m
 2FAE:F5AE       _pass_cnt
 2FAE:6D15       _pass_ret
 2FAE:E34E       _pdn_tmp
 2FAE:1549       _Per_DN_dl
 2FAE:1565       _Per_DN_dlL
 2FAE:153D       _Per_dn_max_v
 2FAE:1559       _Per_dn_max_vL
 2FAE:1539       _Per_dn_min_v
 2FAE:1555       _Per_dn_min_vL
 2FAE:1545       _Per_UP_dl
 2FAE:1561       _Per_UP_dlL
 2FAE:1535       _Per_up_max_v
 2FAE:1551       _Per_up_max_vL
 2FAE:1531       _Per_up_min_v
 2FAE:154D       _Per_up_min_vL
 2FAE:E33E       _pool_time
 2FAE:E344       _port
 0000:104C       _pow10
 2FAE:1473       _PressLvl_off0
 2FAE:147B       _PressLvl_off1
 2FAE:1483       _PressLvl_off2
 2FAE:146F       _PressLvl_on0
 2FAE:1477       _PressLvl_on1
 2FAE:147F       _PressLvl_on2
 2975:0004       _printCom_4
 046D:21E9       _PrintMmiOp
 1061:149F       _PrintOp
 2FAE:6C75       _prok_ka
 2FAE:BA6C       _ProtectMode
 0000:1527       _putc
 1061:6991       _putch2
 1061:69D3       _putch4
 0000:1561       _putchar
 046D:016D       _puts_host
 2FAE:1C39       _P_beg_valve
 2FAE:5961       _P_dem
 2FAE:5965       _P_dem_c
 2FAE:599D       _P_Dif_d
 2FAE:15BB       _p_ik
 2FAE:34E9       _p_mem
 2FAE:1527       _P_min_valve
 2FAE:152B       _P_min_valveL
 2FAE:BC2D       _Rcnt_3
 2FAE:BC75       _Rcnt_4
 2FAE:72C2       _rcv_m
 2FAE:72CA       _Rcv_m
 2FAE:6D57       _rcv_mm
 2FAE:6D5F       _Rcv_mm
 2820:000A       _ReadCom
 2847:0136       _ReadComn_DMA_3
 28FD:012C       _ReadComn_DMA_4
 2FAE:BB22       _ReadCom_
 29CA:0001       _ReadCom_1
 2A74:0005       _ReadCom_2
 28BF:000E       _ReadCom_3
 2978:000D       _ReadCom_4
 2AF4:0005       _ReadCom_5
 2B9F:0007       _ReadCom_6
 2C4A:0009       _ReadCom_7
 2847:0254       _ReadCom_DMA_3
 28FD:024A       _ReadCom_DMA_4
 2709:0007       _ReadNVRAM
 26E9:0075       _ReadRTC
 26E9:00F1       _ReadRTC_Burst
 0000:273A       _realloc
 2FAE:BCB7       _ReceiveXoff_1
 2FAE:BC20       _ReceiveXoff_3
 2FAE:BC68       _ReceiveXoff_4
 2FAE:BD29       _ReceiveXoff_5
 2FAE:BD6B       _ReceiveXoff_6
 2FAE:BDAD       _ReceiveXoff_7
 26D9:0006       _RefreshWDT
 2FAE:7328       _reg_cmn
 2FAE:F57E       _reg_cmnm
 2FAE:1ED4       _Reg_err
 2FAE:F57C       _Reg_errm
 2FAE:BA26       _ResetMode
 281B:000B       _RestoreCom
 2FAE:BAE2       _RestoreCom_
 29DC:0671       _RestoreCom_1
 2A83:03F3       _RestoreCom_2
 2874:040D       _RestoreCom_3
 2929:0413       _RestoreCom_4
 2B07:0665       _RestoreCom_5
 2BB2:0667       _RestoreCom_6
 2C5D:0669       _RestoreCom_7
 2FAE:1575       _result_dlv
 2FAE:F582       _retf_iii
 2FAE:F584       _retf_seg
 2FAE:F580       _retl_offs
 2FAE:72D2       _retl_seg
 2FAE:D590       _rltt1
 2FAE:D58C       _rltt2
 2FAE:D588       _rltt3
 2FAE:D584       _rltt4
 2FAE:1F56       _Rqst_fict
 2FAE:0B7F       _R_MVD
 2FAE:F572       _S1D
 046D:2370       _ScanfMmiOp
 2FAE:08D1       _sci_7017
 2FAE:0140       _scom_tim
 2FAE:CF9E       _ScrBuf
 2FAE:C9CE       _ScrBuf_c
 2FAE:08CD       _sc_7017
 2FAE:6CD9       _sdv_dens
 2FAE:6CD1       _sdv_m_flow
 2FAE:6CD5       _sdv_v_flow
 2FAE:BA76       _SectorSize256
 2FAE:BA82       _SectorSize512
 2FAE:6C4B       _sect_mass
 2FAE:6C49       _sect_num
 2FAE:6C4F       _sect_rslt
 2FAE:6C4D       _sect_vol
 2FAE:2EFC       _seg
 046D:1B98       _SendToMMI
 2FAE:BCB9       _SendXoff_1
 2FAE:BC22       _SendXoff_3
 2FAE:BC6A       _SendXoff_4
 2FAE:BD2B       _SendXoff_5
 2FAE:BD6D       _SendXoff_6
 2FAE:BDAF       _SendXoff_7
 2874:00F2       _Serial_Isr_3
 2929:00F8       _Serial_Isr_4
 046D:09BF       _ServiceCOM
 2823:0000       _SetBaudrate
 2FAE:BB42       _SetBaudrate_
 29A4:000C       _SetBaudrate_1
 2A4F:000E       _SetBaudrate_2
 2833:0007       _SetBaudrate_3
 28E8:000D       _SetBaudrate_4
 2ACF:0000       _SetBaudrate_5
 2B7A:0002       _SetBaudrate_6
 2C25:0004       _SetBaudrate_7
 0000:290E       _setblock
 29DC:0070       _SetComFifoTriggerLevel_1
 2A83:004C       _SetComFifoTriggerLevel_2
 2B07:0064       _SetComFifoTriggerLevel_5
 2BB2:0066       _SetComFifoTriggerLevel_6
 2C5D:0068       _SetComFifoTriggerLevel_7
 29DC:0018       _SetComPortBufferSize_1
 2A83:000B       _SetComPortBufferSize_2
 2874:0010       _SetComPortBufferSize_3
 2929:0016       _SetComPortBufferSize_4
 2B07:000C       _SetComPortBufferSize_5
 2BB2:000E       _SetComPortBufferSize_6
 2C5D:0010       _SetComPortBufferSize_7
 2A78:0006       _SetComTimeout
 29D0:000A       _SetComTimeout_1
 28DB:000E       _SetComTimeout_3
 2997:000D       _SetComTimeout_4
 2AFA:000E       _SetComTimeout_5
 2BA6:0000       _SetComTimeout_6
 2C51:0002       _SetComTimeout_7
 2823:002F       _SetDataFormat
 2FAE:BB62       _SetDataFormat_
 29A4:0069       _SetDataFormat_1
 2A4F:006B       _SetDataFormat_2
 2833:0066       _SetDataFormat_3
 28E8:006C       _SetDataFormat_4
 2ACF:005D       _SetDataFormat_5
 2B7A:005F       _SetDataFormat_6
 2C25:0061       _SetDataFormat_7
 2718:0046       _SetDate
 046D:1B7C       _SetDisplayPage
 2CD1:0001       _SetDo1
 2CD3:0003       _SetDo2
 0000:38F8       _setmem
 046D:1995       _SetMFont
 272F:000F       _SetTime
 0000:3DCE       _setvbuf
 2718:0160       _SetWeekDay
 29DC:000D       _SetXonXoffControlMode_1
 2874:0005       _SetXonXoffControlMode_3
 2929:000B       _SetXonXoffControlMode_4
 2B07:0001       _SetXonXoffControlMode_5
 2BB2:0003       _SetXonXoffControlMode_6
 2C5D:0005       _SetXonXoffControlMode_7
 046D:18DE       _SetZone
 046D:0077       _ShowBaudrate
 046D:005B       _ShowChecksum
 046D:00FD       _ShowCom
 2FAE:B9F6       _ShowData
 2771:015D       _ShowEEP_setting
 046D:0129       _ShowNumber
 046D:003F       _ShowPort
 2FAE:0B4D       _Shtray_cod
 2FAE:13E7       _Sim_Dens
 2FAE:13F7       _Sim_FlowM
 2FAE:13EF       _Sim_MassI
 2FAE:13E3       _Sim_MassT
 2FAE:13FF       _Sim_reg_err
 2FAE:13EB       _Sim_Temp
 2FAE:13F3       _Sim_VolI
 2FAE:13FB       _Sim_VolT
 2FAE:BCB3       _SizeToXoff_1
 2FAE:BC1C       _SizeToXoff_3
 2FAE:BC64       _SizeToXoff_4
 2FAE:BD25       _SizeToXoff_5
 2FAE:BD67       _SizeToXoff_6
 2FAE:BDA9       _SizeToXoff_7
 2FAE:BCB5       _SizeToXon_1
 2FAE:BC1E       _SizeToXon_3
 2FAE:BC66       _SizeToXon_4
 2FAE:BD27       _SizeToXon_5
 2FAE:BD69       _SizeToXon_6
 2FAE:BDAB       _SizeToXon_7
 2FAE:35D1       _sk_reg_n
 2FAE:35D5       _sk_reg_q
 2FAE:791E       _Sl3_addr
 2FAE:398B       _Sl3_addr_e
 2FAE:3995       _Sl3_fl_jrn
 2FAE:3997       _Sl3_fl_jrn_e
 2FAE:7920       _Sl3_lgth
 2FAE:398D       _Sl3_lgth_e
 2FAE:7926       _Sl3_nn
 2FAE:3993       _Sl3_nn_e
 2FAE:7922       _Sl3_time
 2FAE:398F       _Sl3_time_e
 2FAE:7928       _Sl3_time_l
 2FAE:7924       _Sl3_time_mul
 2FAE:3991       _Sl3_time_mul_e
 2FAE:F5CC       _Slot3_dat
 2FAE:F5C4       _SLT3_A
 2FAE:F5C8       _SLT3_N
 2FAE:7770       _Slv2_Slot1
 2FAE:7876       _Slv2_Slot2
 2FAE:789C       _Slv2_Slot3
 2FAE:792C       _Slv2_Slot4
 2FAE:7872       _Slv2_slt1_lgth
 2FAE:7874       _Slv2_slt1_max
 2FAE:7894       _Slv2_slt2_lgth
 2FAE:7896       _Slv2_slt2_max
 2FAE:791A       _Slv2_slt3_lgth
 2FAE:791C       _Slv2_slt3_max
 2FAE:794A       _Slv2_slt4_lgth
 2FAE:794C       _Slv2_slt4_max
 2FAE:7358       _Slv_fict
 2FAE:735A       _Slv_fict1
 2FAE:735C       _Slv_fict2
 2FAE:735E       _Slv_fict3
 2FAE:7360       _Slv_fict4
 2FAE:76F8       _Slv_float
 2FAE:76D0       _Slv_int
 2FAE:7748       _Slv_lng
 0000:3F29       _sprintf
 0000:1081       _sqrt
 0000:3F9F       _sscanf
 2FAE:BA70       _StartSector
 2FAE:7340       _State_SLV
 2FAE:7322       _State_SLVm
 2FAE:152F       _State_UpDn
 2FAE:E346       _status
 2FAE:BC3D       _status1_3
 2FAE:BC85       _status1_4
 2FAE:16C5       _status_fct
 2FAE:BA44       _STD_PORT
 27F9:015A       _StopUserTimerFun
 0000:3FE6       _strcat
 0000:4025       _strcmp
 0000:4055       _strcpy
 0000:2EE3       _strftime
 0000:407E       _strlen
 0000:409D       _strncpy
 0000:0C98       _strtod
 0000:4100       _strtoul
 2FAE:6B6E       _str_dsp1
 2FAE:6B8D       _str_dsp2
 2FAE:6BAC       _str_dsp3
 2FAE:6BCB       _str_dsp4
 2FAE:6BEA       _str_dsp5
 2FAE:6C09       _str_dsp6
 2FAE:6C28       _str_dsp7
 2FAE:6C7E       _str_empt
 2FAE:6D00       _str_ESC
 2FAE:E368       _str_mvd
 2FAE:6B58       _str_prod
 2FAE:C804       _str_tmp
 2FAE:6CB8       _str_x_0
 2FAE:6C9E       _str_x_shtray
 2FAE:2F41       _summ_v
 2FAE:1391       _summ_v_id
 2FAE:1389       _summ_v_int
 2FAE:1787       _sw_dlv_gas
 2FAE:1785       _sw_dlv_liq
 2FAE:7346       _sw_dlv_slv
 2FAE:06EB       _sw_fst
 2FAE:706A       _sw_mmi
 2FAE:1305       _sw_MMI_cur
 2FAE:1307       _sw_MMI_lim
 2FAE:7344       _sw_mmi_slv
 2FAE:1301       _sw_mvd_1
 2FAE:130F       _sw_mvd_3
 2FAE:1309       _sw_mvd_m1
 2FAE:178B       _sw_rcv_gas
 2FAE:1789       _sw_rcv_liq
 2FAE:1C2F       _sw_ret
 2FAE:0094       _sw_ver
 2FAE:00A8       _sw_ver1
 2FAE:BA2E       _SystemSerialNumber
 2FAE:6CE1       _s_empty
 2FAE:7316       _s_mode
 2FAE:0E9F       _s_MVD
 2FAE:70B8       _table_crc_hi
 2FAE:71B8       _table_crc_lo
 0000:1E7C       _tell
 2FAE:0FF3       _Temperature
 2FAE:0B77       _Temp_a
 2FAE:0B6F       _Temp_AD
 2FAE:143B       _TimDensOff
 2FAE:143F       _TimDensOn
 2FAE:1443       _TimDensWt0
 2FAE:1447       _TimDensWt1
 2FAE:054E       _time1
 2FAE:146B       _TimeBegFlch
 2FAE:1FFE       _TimeClear
 2FAE:012C       _TimeDelayForFirstTurnOn
 2FAE:108B       _TimeMVD_evt
 2FAE:1087       _TimeMVD_Init
 2FAE:2102       _TimeOneShot
 2FAE:E33C       _timeout
 2FAE:1403       _TimeOut3
 2FAE:BA22       _TimeTicks
 2FAE:C604       _timezone
 2FAE:1425       _time_beg_fill
 2FAE:142B       _time_chg_den
 2FAE:C7DC       _time_chg_den0
 2FAE:C7D8       _time_chg_den2
 2FAE:1571       _time_ch_v
 2FAE:1765       _time_cnt_cl_off
 2FAE:175D       _time_com_cl
 2FAE:1761       _time_com_cl_off
 2FAE:1775       _time_EQ_dlv
 2FAE:1771       _time_EQ_rcv
 2FAE:14A5       _time_flch
 2FAE:176D       _time_gas_cl_off
 2FAE:1769       _time_gas_cl_on
 2FAE:177D       _time_LIQ_dlv
 2FAE:1779       _time_LIQ_rcv
 2FAE:017C       _time_rcv
 2FAE:7966       _time_set_out
 2FAE:0168       _time_snd
 2FAE:1C27       _time_t_snd
 2FAE:1C2B       _time_t_swtch
 2FAE:72BC       _tim_000
 2FAE:142F       _tim_dens
 2FAE:1433       _tim_dens0
 2FAE:1437       _tim_dens2
 2FAE:156D       _Tim_dn
 2FAE:1541       _Tim_hld
 2FAE:155D       _Tim_hldL
 2FAE:1381       _tim_MVD_delay
 2FAE:1C31       _Tim_Prep1
 2FAE:1C35       _Tim_Prep_ND
 2FAE:7962       _Tim_set_out
 2FAE:C7EA       _tim_snd_MVD
 2FAE:13D7       _tim_snd_MVDT
 2FAE:1569       _Tim_up
 2FAE:59F9       _tl_reg_b
 2FAE:59FD       _tl_reg_e
 2FAE:5A01       _tl_reg_res
 2FAE:C7E4       _tm31_mvd
 2FAE:C7E0       _tm3_mvd
 2FAE:F604       _tMassI
 2FAE:3BAD       _tmp_go
 2FAE:6C5D       _tm_md
 2FAE:D630       _tm_mvd
 2FAE:D62C       _tm_mvd_p
 2FAE:0154       _Tm_snd
 2829:0001       _ToCom
 2818:0009       _ToComBufn
 2FAE:BAC2       _ToComBufn_
 29B3:000A       _ToComBufn_1
 2A5E:000C       _ToComBufn_2
 28C6:000E       _ToComBufn_3
 297F:000D       _ToComBufn_4
 2ADD:000E       _ToComBufn_5
 2B89:0000       _ToComBufn_6
 2C34:0002       _ToComBufn_7
 2994:000D       _ToComStr_4
 2FAE:BB82       _ToCom_
 29D0:0015       _ToCom_1
 2A78:0011       _ToCom_2
 28DB:0019       _ToCom_3
 2997:0018       _ToCom_4
 2AFA:0019       _ToCom_5
 2BA6:000B       _ToCom_6
 2C51:000D       _ToCom_7
 2FAE:06CF       _ToutAns
 2FAE:4CA5       _ToutLicpScan
 2FAE:BBC2       _TriggerLevel
 2FAE:1C7D       _TSD
 2FAE:D5E4       _TsdBuf
 2FAE:C65C       _TsdBuf1
 2FAE:C67A       _TsdBuf_c
 2FAE:C648       _TsdStr
 2FAE:C644       _TsdStrN
 2FAE:1E4D       _TSD_fn
 2FAE:1E75       _TSD_inp_err
 2FAE:1E89       _TSD_period
 2FAE:1D05       _TSD_Rqst
 2FAE:1E55       _TSD_seq
 2FAE:1E51       _TSD_sw
 2FAE:1E79       _tsd_sw
 2FAE:1EA9       _tsd_swf
 2FAE:1E85       _TSD_time_pool
 2FAE:1C59       _TSD_value
 2FAE:1E91       _TSD_val_c
 2FAE:1C4D       _TSD_vn
 2FAE:DA38       _ttt1
 2FAE:DA30       _ttt1_l
 2FAE:DA36       _ttt2
 2FAE:DA2C       _ttt2_l
 2FAE:DA34       _ttt3
 2FAE:DA28       _ttt3_l
 2FAE:D59C       _ttt4
 2FAE:3FD5       _tt_day
 2FAE:3FD3       _tt_hour
 2FAE:0FFF       _tt_Mas1
 2FAE:1003       _tt_Mas2
 2FAE:3FD1       _tt_min
 2FAE:3FD7       _tt_month
 2FAE:E33A       _TT_par
 2FAE:3FCF       _tt_sec
 2FAE:1379       _tt_vol1
 2FAE:137D       _tt_vol2
 2FAE:3FD9       _tt_year
 2FAE:F600       _tVolI
 2FAE:6C47       _type_dlv
 2FAE:2054       _type_liq
 2FAE:C5FC       _tzname
 0000:41B4       _tzset
 2FAE:13D5       _t_ctrl
 2FAE:148B       _t_mvd_cor
 2FAE:2106       _T_one_Shot
 2FAE:7324       _T_Pmp_LG
 2FAE:1493       _t_prep_MVD
 2FAE:1497       _t_prep_MVD1
 2FAE:0B55       _T_Ref
 2FAE:5A05       _t_reg_res
 2FAE:7958       _uk_beg_Slv
 2FAE:4AFB       _uk_buf
 2FAE:795A       _uk_fin_Slv
 2FAE:4AFD       _uk_ns
 2FAE:E390       _ul
 2FAE:6D67       _unit1
 2FAE:6D6B       _unit2
 2FAE:6D6F       _unit3
 2FAE:6D73       _unit4
 2FAE:6D77       _unit5
 2FAE:6D7B       _unit6
 2FAE:124F       _unit_codes
 2FAE:10EF       _unit_lst
 2FAE:BA36       _Unit_ms
 2FAE:BA38       _Unit_ms1
 2FAE:BA3A       _Unit_ms2
 2FAE:6D31       _un_mmi1
 2FAE:6D33       _un_mmi2
 2FAE:6D35       _un_mmi3
 2FAE:BC25       _UseDMA_3
 2FAE:BC6D       _UseDMA_4
 2FAE:C7E8       _u_cod
 2FAE:14B3       _val0_flch
 2FAE:5A63       _Value_beg
 2FAE:14B7       _valve_mode
 2FAE:14B9       _valve_modeL
 2FAE:14AB       _val_flch
 2FAE:14AF       _val_flch2
 2FAE:6C59       _vBIG_P
 2FAE:1371       _vol2
 2FAE:10E7       _VolI_beg
 2FAE:6C55       _VolStamp
 2FAE:EBEA       _VolTT
 2FAE:138D       _VolT_id
 2FAE:1385       _VolT_int
 2FAE:2F39       _volume_f
 2FAE:14C1       _Vol_beg
 2FAE:202C       _vol_ch2_cur
 2FAE:204C       _vol_ch2_end
 2FAE:203C       _vol_ch2_start
 2FAE:2F3D       _vol_f
 2FAE:1415       _vol_mom
 2FAE:1419       _vol_mom0
 0000:3F4B       _vsprintf
 0000:3FC2       _vsscanf
 2FAE:4C11       _v_num_var
 2FAE:0B5D       _V_ref
 2FAE:BA60       _WaitAckCount
 27DB:0049       _WaitFlashCommandEnd
 282E:0003       _WaitTransmitOver
 2FAE:BBD0       _WaitTransmitOver_
 2A4C:0017       _WaitTransmitOver_1
 2ACB:0019       _WaitTransmitOver_2
 28E5:0016       _WaitTransmitOver_3
 29A1:0015       _WaitTransmitOver_4
 2B76:001B       _WaitTransmitOver_5
 2C21:001D       _WaitTransmitOver_6
 2CCD:000F       _WaitTransmitOver_7
 2FAE:2004       _waTemp
 2FAE:2002       _waTempOn
 2FAE:319D       _WDOG
 2FAE:3225       _WDOG_Rqst
 2FAE:734A       _WD_PMP_Fl
 2FAE:7348       _WD_PMP_flag
 2FAE:7354       _WD_PMP_Per
 2FAE:7350       _WD_PMP_t1
 2FAE:734C       _WD_PMP_time
 2FAE:6B42       _WHOLE
 2FAE:36F5       _wmf_v
 2FAE:35F5       _wmvd_reg_v
 2738:000D       _WriteNVRAM
 26E9:00CB       _WriteRTC
 26E9:0156       _WriteRTC_Burst
 2FAE:59C1       _XdN
 2FAE:59C5       _XdN_1
 2FAE:59C9       _XdN_2
 2FAE:5A33       _XfN
 2FAE:5A37       _XfN_1
 2FAE:5A3B       _XfN_2
 2FAE:59ED       _XiN
 2FAE:59F1       _XiN_1
 2FAE:59F5       _XiN_2
 2FAE:5991       _XN
 2FAE:5995       _XN_1
 2FAE:5999       _XN_2
 2FAE:05DD       _x_mmi
 2FAE:59BD       _YdN
 2FAE:5A2F       _YfN
 2FAE:598D       _YN
 2FAE:05DF       _y_mmi
 2FAE:0128       _ZeroPage
 2FAE:F5C0       _zero_time
 2FAE:C8EE       _Zone_par
 046D:19EC       _Z_Gotox
 046D:19CD       _Z_MvToX
 2FAE:BDE0       __8087
 0000:1000  Abs  __AHINCR
 0000:000C  Abs  __AHSHIFT
 2FAE:BFBC       __atexitcnt
 2FAE:F762       __atexittbl
 0000:2831       __brk
 2FAE:008B       __brklvl
 2FAE:006B       __C0argc
 2FAE:006D       __C0argv
 2FAE:0071       __C0environ
 0000:1328       __cexit
 0000:0167       __checknull
 0000:0154       __cleanup
 2FAE:BA42       __CpuSpeed
 2FAE:BFBE       __ctype
 0000:0000  Abs  __cvtfak
 0000:1336       __c_exit
 2FAE:BDF4       __default87
 2FAE:C288       __doserrno
 0000:13DB       __DOSERROR
 2FAE:C28A       __dosErrorToSV
 3F30:0000       __emu
 2FAE:0075       __envLng
 2FAE:0077       __envseg
 2FAE:0079       __envSize
 0000:1316       __exit
 2FAE:C0C0       __exitbuf
 2FAE:C0C4       __exitfopen
 2FAE:C0C8       __exitopen
 0000:3752       __fgetc
 0000:8087  Abs  __floatconvert
 0000:4642       __fmemcmp
 0000:466A       __fmemcpy
 0000:46B2       __fmemset
 0000:0ED4       __fperror
 2FAE:C286       __fpstklen
 0000:05FB       __fpuint
 0000:393B       __fputc
 0000:3AFE       __FPUTN
 0000:468E       __fsetmem
 2FAE:0087       __heapbase
 2FAE:008F       __heaptop
 2FAE:BDFA       __huge_dble
 2FAE:BDF6       __huge_flt
 2FAE:BE02       __huge_ldble
 2FAE:BE0C       __indefinite
 2FAE:005B       __Int0Vector
 2FAE:005F       __Int4Vector
 2FAE:0063       __Int5Vector
 2FAE:0067       __Int6Vector
 0000:13A2       __IOERROR
 0000:43A0       __ISDST
 2FAE:BDF1       __LDT
 0000:060E       __LDTRUNC
 0000:15BD       __LONGTOA
 0000:11AD       __matherr
 2FAE:BE1A       __mathwhy
 27F8:000D       __MK_FP_
 0000:0262       __MMODEL
 2FAE:BBF0       __Modify_Data
 2FAE:C5E2       __monthDay
 0000:3767       __Nfgetc
 2FAE:C25C       __nfile
 2FAE:C25E       __openfd
 2FAE:007D       __osmajor
 2FAE:007E       __osminor
 2FAE:007D       __osversion
 0000:0F83       __POW10
 2FAE:BDF0       __protected
 2FAE:007B       __psp
 0000:16DC       __read
 0000:28FE       __REALCVT
 2FAE:C616       __RealCvtVector
 0000:01BD       __restorezero
 0000:2870       __sbrk
 0000:170B       __scanner
 0000:290A       __scanpop
 0000:2906       __scanrslt
 0000:2902       __scantod
 2FAE:C61A       __ScanTodVector
 0000:1C24       __scantol
 0000:0000  Abs  __setenvp__
 0000:1DC6       __setupio
 2FAE:0081       __StartTime
 2FAE:C364       __stklen
 2FAE:BC00       __Stop2_3
 2FAE:BC48       __Stop2_4
 2FAE:C0CC       __streams
 0000:0C2C       __strtold
 0000:0168       __terminate
 2FAE:BE10       __tiny_ldble
 0000:0000  Abs  __turboCvt
 0000:8087  Abs  __turboFloat
 0000:163F       __UTOA
 2FAE:007D       __version
 0000:1EAC       __VPRINTER
 0000:45CE       __write
 0000:0CCC       __XCVT
 0000:460A       __xfflush
 2FAE:BA3E       ___BaudDiv__
 2FAE:0085       ___brklvl
 0000:2389       ___first
 0000:0514       ___fpreset
 0000:238B       ___last
 0000:3CFD       ___read
 0000:238D       ___rover
 2FAE:F7E2       ___SignalPtr
 0000:447F       ___write
 2FAE:BA32       ____OsType__

  Address         Publics by Value

 0000:0000  Abs  __turboCvt
 0000:0000  Abs  __cvtfak
 0000:0000  Abs  __setenvp__
 0000:000C  Abs  __AHSHIFT
 0000:0632  Abs  FISRQQ
 0000:0E32  Abs  FICRQQ
 0000:1000  Abs  __AHINCR
 0000:1632  Abs  FIERQQ
 0000:4000  Abs  FJARQQ
 0000:5C32  Abs  FIDRQQ
 0000:8000  Abs  FJSRQQ
 0000:8087  Abs  __turboFloat
 0000:8087  Abs  __floatconvert
 0000:A23D  Abs  FIWRQQ
 0000:C000  Abs  FJCRQQ
 0000:FE32  Abs  FIARQQ
 0000:0154       __cleanup
 0000:0167       __checknull
 0000:0168       __terminate
 0000:01BD       __restorezero
 0000:0249       _abort
 0000:0260       DGROUP@
 0000:0262       __MMODEL
 0000:0264       F_LXMUL@
 0000:0264       LXMUL@
 0000:027B       F_SCOPY@
 0000:027B       SCOPY@
 0000:0297       N_LDIV@
 0000:029A       F_LDIV@
 0000:029A       LDIV@
 0000:029E       N_LUDIV@
 0000:02A1       F_LUDIV@
 0000:02A1       LUDIV@
 0000:02A6       N_LMOD@
 0000:02A9       F_LMOD@
 0000:02A9       LMOD@
 0000:02AE       N_LUMOD@
 0000:02B1       LUMOD@
 0000:02B1       F_LUMOD@
 0000:0345       N_LXLSH@
 0000:0348       F_LXLSH@
 0000:0348       LXLSH@
 0000:0366       N_LXRSH@
 0000:0369       F_LXRSH@
 0000:0369       LXRSH@
 0000:0386       N_LXURSH@
 0000:0389       F_LXURSH@
 0000:0389       LXURSH@
 0000:0514       ___fpreset
 0000:05FB       __fpuint
 0000:05FF       _fabs
 0000:060E       __LDTRUNC
 0000:0C2C       __strtold
 0000:0C98       _strtod
 0000:0CCC       __XCVT
 0000:0ED4       __fperror
 0000:0F83       __POW10
 0000:104C       _pow10
 0000:1057       _matherr
 0000:1081       _sqrt
 0000:10C3       _exp
 0000:1131       _log
 0000:11AD       __matherr
 0000:1256       F_FTOL@
 0000:1256       FTOL@
 0000:1282       _atexit
 0000:1307       _exit
 0000:1316       __exit
 0000:1328       __cexit
 0000:1336       __c_exit
 0000:1342       N_PADD@
 0000:1345       F_PADD@
 0000:1345       PADD@
 0000:1371       N_PSUB@
 0000:1374       F_PSUB@
 0000:1374       PSUB@
 0000:13A2       __IOERROR
 0000:13DB       __DOSERROR
 0000:13ED       _isalnum
 0000:13FF       _isascii
 0000:1412       _isalpha
 0000:1424       _iscntrl
 0000:1436       _isdigit
 0000:1448       _isgraph
 0000:1461       _islower
 0000:1473       _isprint
 0000:148C       _ispunct
 0000:149E       _isspace
 0000:14B0       _isupper
 0000:14C2       _isxdigit
 0000:14D4       _getc
 0000:1505       _getchar
 0000:1527       _putc
 0000:1561       _putchar
 0000:158E       _feof
 0000:159D       _ferror
 0000:15AC       _isatty
 0000:15BD       __LONGTOA
 0000:163F       __UTOA
 0000:165F       _lseek
 0000:1688       N_LXMUL@
 0000:169F       N_PCMP@
 0000:16C0       N_SCOPY@
 0000:16DC       __read
 0000:170B       __scanner
 0000:1C24       __scantol
 0000:1DC6       __setupio
 0000:1E7C       _tell
 0000:1EAC       __VPRINTER
 0000:2389       ___first
 0000:238B       ___last
 0000:238D       ___rover
 0000:24C9       _free
 0000:24C9       _farfree
 0000:25D3       _malloc
 0000:25DD       _farmalloc
 0000:273A       _realloc
 0000:2741       _farrealloc
 0000:2831       __brk
 0000:2870       __sbrk
 0000:28FE       __REALCVT
 0000:2902       __scantod
 0000:2906       __scanrslt
 0000:290A       __scanpop
 0000:290E       _setblock
 0000:2994       F_OVERFLOW@
 0000:2994       N_OVERFLOW@
 0000:2994       OVERFLOW@
 0000:29A6       _atol
 0000:2A1B       _atoi
 0000:2C60       _gmtime
 0000:2C79       _localtime
 0000:2CAF       _asctime
 0000:2CDA       _ctime
 0000:2E83       _mktime
 0000:2EE3       _strftime
 0000:33A0       _eof
 0000:3417       _fflush
 0000:34E4       _flushall
 0000:3526       _fprintf
 0000:35C4       _fseek
 0000:3644       _ftell
 0000:3752       __fgetc
 0000:3767       __Nfgetc
 0000:376A       _fgetc
 0000:3858       _fgetchar
 0000:3864       _getenv
 0000:38D4       _memcpy
 0000:38F8       _setmem
 0000:391C       _memset
 0000:393B       __fputc
 0000:3957       _fputc
 0000:3AEA       _fputchar
 0000:3AFE       __FPUTN
 0000:3CFD       ___read
 0000:3DCE       _setvbuf
 0000:3F29       _sprintf
 0000:3F4B       _vsprintf
 0000:3F9F       _sscanf
 0000:3FC2       _vsscanf
 0000:3FE6       _strcat
 0000:4025       _strcmp
 0000:4055       _strcpy
 0000:407E       _strlen
 0000:409D       _strncpy
 0000:4100       _strtoul
 0000:41B4       _tzset
 0000:43A0       __ISDST
 0000:447F       ___write
 0000:45CE       __write
 0000:460A       __xfflush
 0000:4642       __fmemcmp
 0000:466A       __fmemcpy
 0000:468E       __fsetmem
 0000:46B2       __fmemset
 046D:0001       _f_get_nb
 046D:003F       _ShowPort
 046D:005B       _ShowChecksum
 046D:0077       _ShowBaudrate
 046D:00FD       _ShowCom
 046D:0129       _ShowNumber
 046D:0141       _getch_host
 046D:016D       _puts_host
 046D:01A6       _f_cycle_cmn
 046D:03B3       _f_cycle
 046D:0429       _f_cycle0
 046D:045B       _f_cycle1
 046D:049D       _main
 046D:09BF       _ServiceCOM
 046D:0CA0       _f_timer
 046D:0CDC       _f_empty
 046D:0CF2       _f_time_dd
 046D:0D82       _f_print_dd
 046D:0DCF       _f_one_sec
 046D:1058       _f_wr_cor
 046D:119C       _f_rd_cor
 046D:129D       _init_win_sum
 046D:157A       _MmiKbhit
 046D:1596       _MmiGetch
 046D:15D5       _f_MMI
 046D:183F       _f_clr_scr_MMI
 046D:1888       _f_clr_scr_c_MMI
 046D:18B3       _f_rev_scr_MMI
 046D:18DE       _SetZone
 046D:1995       _SetMFont
 046D:19B1       _MoveToXY
 046D:19CD       _Z_MvToX
 046D:19EC       _Z_Gotox
 046D:1A10       _MmiShowCursor
 046D:1A2D       _MmiCursorOff
 046D:1A4A       _MmiGotoxy
 046D:1A6A       _MmiPutch
 046D:1AA7       _MmiPuts
 046D:1B2C       _MmiPrintf
 046D:1B7C       _SetDisplayPage
 046D:1B98       _SendToMMI
 046D:1E1F       _f_mmi_err
 046D:1E35       _f_MMI_Flt
 046D:1E71       _f_MMI_SetAns
 046D:1ED4       _f_MMI_KBD_ans
 046D:1FBA       _fstin
 046D:21E9       _PrintMmiOp
 046D:2370       _ScanfMmiOp
 046D:2839       _f_tbl_1
 046D:2849       _f_7017C
 046D:2A3C       _f_7017_rd_all_hex
 046D:2CE7       _f_7017_Flt
 046D:2D98       _f_7060
 046D:3171       _f_init_7060
 046D:32B2       _f_7060_rd
 046D:3788       _f_7060_Flt
 046D:3839       _f_init_Fl_m
 046D:385E       _f_MVD
 046D:3E3D       _f_MVD_WR
 046D:40F1       _f_MVD_rd_t
 046D:42FD       _f_MVD_rd_tS
 046D:452D       _f_init_MVD
 046D:49A4       _f_get_int
 046D:49DF       _f_get_float_i
 046D:4A32       _f_get_float
 046D:4BD5       _f_set_float
 046D:4D39       _f_set_long
 046D:4D8D       _f_set_int
 046D:4DB9       _f_get_long
 046D:4E3E       _f_get_intS
 046D:4E78       _f_MVD_rd
 046D:58B6       _f_get_unit
 046D:58FB       _f_MVD_1
 046D:5CD2       _f_MVD_2
 046D:6145       _f_MVD_31
 046D:623D       _f_MVD_3
 046D:6590       _f_ctrl_v1
 046D:660C       _f_prep_int_v2
 046D:669F       _f_prep_int_MassF
 046D:6767       _f_int_v2
 046D:67D7       _f_sim_MVD
 046D:67E7       _f_sim_MVD0
 046D:6A26       _f_reset_zer_MVD
 046D:6A82       _f_ctrl_v2
 046D:6ADD       _f_prep_int_Mass
 046D:6BAD       _f_prep_bern
 046D:6BFE       _f_stop_cnt
 046D:6C7E       _f_enable_cnt
 046D:6E03       _f_MVD_cor
 046D:74C4       _f_flow_chk
 046D:75B6       _f_init_valve
 046D:764F       _f_two_valve
 046D:7982       _f_en_two_valv
 046D:7ADC       _f_two_valveL
 046D:7E11       _f_en_two_valvL
 046D:7F20       _f_reg_valve
 046D:84EA       _f_en_reg_valv
 046D:867F       _f_UP_DN
 046D:8BC3       _f_ik
 046D:8C27       _f_init_mki
 046D:8C80       _f_var_i
 046D:8DE4       _f_St_chk_fict
 046D:8DF9       _f_Rn_chk_fict
 046D:8E0D       _f_fict
 046D:8E1D       _f_fict_stop
 046D:8E3D       _f_fict_run
 046D:8E5B       _f_dlv_liq
 046D:9FD0       _f_alarm
 046D:A040       _f_sens
 046D:A27C       _f_inp7188
 046D:A2F4       _f_tst
 046D:A312       _f_tst1
 046D:A330       _f_tst2
 046D:A34E       _f_TSD
 046D:A5BB       _f_TSD_rd
 046D:A6EB       _f_TSD_flt
 046D:A79C       _f_clr_TSD
 046D:A7D7       _f_rev_TSD
 046D:A812       _f_print_TSD
 046D:AAC8       _f_prep_TSD
 046D:AC56       _ffgets_com_ICP
 046D:AD80       _f_empty_gets
 046D:ADD4       _f_check_crc_ICP
 046D:AE55       _f_prepare7000
 046D:AEFB       _f_icp_error
 046D:B09B       _f_icp_errS
 046D:B338       _f_get_icp_error
 046D:B37B       _f_cl_error
 046D:B42C       _f_queue_init
 046D:B450       _f_queue_clr
 046D:B57E       _f_queue_put
 046D:B60A       _f_queue_chk
 046D:B655       _f_queue_free
 046D:B6D3       _f_queue_Flt
 046D:B74B       _f_get_VCF
 046D:B83A       _f_get_gamma
 046D:B8C8       _f_get_ref_Dns
 046D:BA26       _f_get_T
 046D:BC19       _f_init_DNSA
 046D:BC3D       _f_cnt_DnsA
 046D:BEE2       _f_one_shot
 046D:BEF2       _f_out
 1061:000B       _f_WDOG
 1061:01B7       _ffgets_no_com_ICP
 1061:0259       _f_WD_end
 1061:02CE       _f_123
 1061:037A       _f_host
 1061:03C9       _f_send_to_Host
 1061:0428       _f_prompt
 1061:046C       _f_empty_ans_echo
 1061:04A3       _f_send_to_Host_sk
 1061:08A0       _f_send_to_Host_rtu
 1061:0948       _ffgets_host
 1061:0A5E       _f_inw
 1061:0BAE       _f_innum
 1061:0DC1       _f_inhex
 1061:0E51       _f_lim
 1061:0EAA       _f_dis_set
 1061:149F       _PrintOp
 1061:1625       _f_ns_count
 1061:16B1       _f_init_TSD
 1061:1715       _f_look_ICP
 1061:19C8       _f_result_Licp
 1061:1B2A       _f_empty_ans_Licp
 1061:1B66       _f_ans_Licp_cfg
 1061:1C7F       _f_ans_Licp_Flt
 1061:1CA3       _f_look_RTU
 1061:1E56       _f_result_Licp_RTU
 1061:1FF0       _f_print_que
 1061:2206       _f_drv_list
 1061:22B6       _f_get_mod_str
 1061:233A       _f_mod_list
 1061:2453       _f_icp_hlp
 1061:24B7       _f_bridge_24
 1061:2515       _f_bridge_34
 1061:2573       _f_dnum
 1061:25C2       _f_check_id
 1061:2894       _f_intr
 1061:65F1       _f_rep
 1061:6918       _f_menu
 1061:6991       _putch2
 1061:69D3       _putch4
 1061:6A48       _f_ee_num_init
 1061:6A76       _f_wrt_eee
 1061:6B7F       _f_chk_EEE_CRC
 1061:6C74       _f_rd_eee
 1061:6D89       _f_init_reg_P
 1061:6E1D       _f_reg_P
 1061:70A9       _f_reg_D
 1061:7289       _f_reg_I
 1061:7462       _f_init_reg_F
 1061:7585       _f_reg_F
 1061:79E0       _f_count_cf
 1061:7F5E       _MD5Init
 1061:7FC3       _MD5Update
 1061:80E9       _MD5Final
 1061:9D14       _f_md5
 1A5E:000F       _f_d_ESC
 1A5E:0039       _f_prn_begin
 1A5E:011F       _f_prn_ID
 1A5E:01FA       _f_prn_slv1
 1A5E:02B1       _f_prn_no_sig_L
 1A5E:04F2       _f_prn_no_sig_H
 1A5E:06CC       _f_prn_CRC_error
 1A5E:0768       _f_prn_mode
 1A5E:07CA       _f_prn_proc
 1A5E:0DCF       _f_prn_MassSt_dlv
 1A5E:0E1E       _f_prn_error
 1A5E:0EF2       _f_disp_error
 1A5E:151C       _f_drv_list_MMI
 1A5E:15FF       _f_drv_stat_MMI
 1A5E:16F1       _f_mod_list_MMI
 1A5E:1849       _f_prn_current
 1A5E:191A       _f_prn_den_t
 1A5E:1AA5       _f_prn_lst_hour
 1A5E:1CD7       _f_prn_date
 1A5E:1ED7       _f_prn_5day
 1A5E:20F0       _f_prn_mmi_a
 1A5E:2D50       _f_MVD_M1
 1A5E:2D6C       _f_MVD_M1f
 1A5E:3019       _f_MVD_M1s
 1A5E:3100       _f_MVD_M2
 1A5E:311C       _f_MVD_MM2
 1A5E:3138       _f_MVD_M3
 1A5E:335B       _f_MVD_MM4
 1A5E:3402       _f_MVD_M3_Pr
 1A5E:34E1       _f_menu_MMI
 1A5E:88F8       _f_before_MMI
 1A5E:893D       _f_after_MMI
 1A5E:8A29       _ffgets_com_rtu
 1A5E:8AF4       _f_chg_toRTU
 1A5E:8B90       _crc16
 1A5E:8BFD       _f_check_crc_RTU
 1A5E:8C60       _f_prepareRTU
 1A5E:8CBF       _f_prepareRTU1
 1A5E:8D1F       _f_wr_evt
 1A5E:8D54       _f_wr_astr
 1A5E:8E00       _f_get_max_n_arch
 1A5E:8E93       _f_print_a_str
 1A5E:8ECA       _f_print_str_a
 1A5E:9896       _f_get_astr
 1A5E:999B       _f_get_fst_stor
 1A5E:9A33       _f_get_lst_stor
 1A5E:9B18       _f_prepare_evt
 1A5E:A001       _f_get_flash_p
 1A5E:A110       _f_get_next_seg
 1A5E:A17A       _f_get_nxt_seg
 1A5E:A1B4       _f_get_prev_seg
 1A5E:A1E3       _get_vdate
 1A5E:A263       _f_get_time
 1A5E:A280       _f_prepare_t
 1A5E:A2DE       _f_get_time_t
 1A5E:A34F       _f_get_d_dat
 1A5E:A6CA       _f_print_d_str
 1A5E:A7D8       _f_get_dat_s
 1A5E:A8C2       _f_get_dat_n
 1A5E:A8EC       _fun_tim_u
 1A5E:A966       _f_SlaveRTU
 1A5E:A98F       _f_get_SlvBuf
 1A5E:AA0A       _f_free_SlvBuf
 1A5E:AA29       _f_stor_Slv
 1A5E:AACA       _ffgets_SlvRTU
 1A5E:ACCC       _f_get_numRTU2
 1A5E:AD14       _f_get_numRTU7
 1A5E:AD5A       _f_intr_SlvRTU
 1A5E:B4CA       _f_is_int
 1A5E:B4F6       _f_is_float
 1A5E:B532       _f_int_fnc
 1A5E:B875       _f_stop_dlv
 1A5E:B905       _f_alm_stop
 1A5E:B923       _f_rst_slv
 1A5E:B97E       _f_fls
 1A5E:B9C1       _f_CE_slv
 1A5E:B9E7       _f_SetOut_slv
 1A5E:B9FB       _f_Zero_slv
 1A5E:BAB3       _f_flow_mod
 1A5E:BB29       _f_WE_slv
 1A5E:BB49       _ff_we_slv
 1A5E:BB70       _ff_wr_strt_evt
 1A5E:BB89       _f_start_dlv
 1A5E:BC9C       _f_start_dlv11
 1A5E:BE0B       _f_cmd_prn
 1A5E:BE1F       _f_Baud_slv
 1A5E:BEBB       _f_set_slv
 1A5E:BF9D       _f_acces_code
 1A5E:BFE5       _f_acces_page
 1A5E:C02D       _f_dsp_16
 1A5E:C07B       _f_reg_cmn_clk
 1A5E:C097       _f_reg_cmn
 1A5E:C0BB       _f_reg_cmn_h
 1A5E:C0E3       _f_mirr
 1A5E:C167       _f_OFP
 1A5E:C315       _f_OFP_WR
 1A5E:C464       _f_OFP_rd_t
 1A5E:C64D       _f_OFP_rd
 26D9:0006       _RefreshWDT
 26DB:0000       _ClockHigh
 26DB:000C       _ClockHighLow
 26DB:001C       _ClockHighLow_1
 26DE:0009       _ClockLow
 26DF:0005       _LedToggle
 26E0:0000       _Init5DigitLed
 26E2:000E       SHOW5DIGITLED
 26E4:0008       SHOW5DIGITLEDWITHDOT
 26E6:0004       WRITE_TO_7219
 26E9:0075       _ReadRTC
 26E9:00CB       _WriteRTC
 26E9:00F1       _ReadRTC_Burst
 26E9:0156       _WriteRTC_Burst
 2701:0007       _GetDate
 2701:0039       _GetWeekDay
 2706:0004       _GetTime
 2709:0007       _ReadNVRAM
 270C:000B       _GetTimeDate
 2718:000A       _IsLeapYear
 2718:0046       _SetDate
 2718:0160       _SetWeekDay
 272F:000F       _SetTime
 2738:000D       _WriteNVRAM
 273B:000B       _CheckCpuSpeed
 273B:00C6       _InitLib
 2748:0008       _EE1024_MultiRead
 2754:0009       _EE1024_MultiWrite
 275E:0003       _EE1024_ReadNext
 2762:0003       _EE1024_RandomRead
 276A:0004       _EE1024_RandomWrite
 2771:0039       EE_BITWRITE
 2771:005B       _EE_Start
 2771:007E       _EE_Stop
 2771:0090       _EE_ReadAck
 2771:00AE       _EE_SendAck
 2771:00C5       EE_WRITEBYTE
 2771:00EC       _EE_ReadByte
 2771:0119       EE_INITWRITEMODE
 2771:015D       _ShowEEP_setting
 2786:000E       _EE_WriteProtect
 2788:0005       _EE_WriteEnable
 2788:000D       _InitEEPROM
 27A0:000B       _EE_MultiRead
 27AA:0009       _EE_MultiWrite
 27B1:0007       _EE_MultiWrite_A
 27BE:000E       _EE_ReadNext
 27C2:000E       _EE_RandomRead
 27CA:0001       _EE_RandomWrite
 27CF:0008       _EE_MultiWrite_L
 27CF:0038       _EE_MultiRead_L
 27D5:0008       _FlashErase
 27DB:000A       _FlashUnlock
 27DB:0020       _FlashCmd
 27DB:0039       _FlashResetToReadMode
 27DB:0049       _WaitFlashCommandEnd
 27DB:010D       _FlashReadId
 27F2:000D       _FlashWrite
 27F8:000D       __MK_FP_
 27F9:00D6       _InstallUserTimerFunction_us
 27F9:012D       _InstallUserTimerFunction_ms
 27F9:015A       _StopUserTimerFun
 280E:000F       _LongDiv
 2813:0009       _Chk_Port
 2815:0001       _InstallCom
 2818:0009       _ToComBufn
 281B:000B       _RestoreCom
 281E:0001       _NullIsCom
 281E:0004       _IsCom
 2820:000A       _ReadCom
 2823:0000       _SetBaudrate
 2823:002F       _SetDataFormat
 2829:0001       _ToCom
 282B:000D       _IsTxBufEmpty
 282E:0003       _WaitTransmitOver
 2833:0007       _SetBaudrate_3
 2833:0066       _SetDataFormat_3
 2847:00AB       _InstallCom_DMA_3
 2847:0136       _ReadComn_DMA_3
 2847:01EA       _DataSizeInCom_DMA_3
 2847:0226       _ClearCom_DMA_3
 2847:0245       _IsCom_DMA_3
 2847:0254       _ReadCom_DMA_3
 2871:000D       _IsCom_3
 2874:0005       _SetXonXoffControlMode_3
 2874:0010       _SetComPortBufferSize_3
 2874:0037       _ClearTxBuffer_3
 2874:0043       _GetTxBufferFreeSize_3
 2874:00CA       _InstallComInputData_3
 2874:00DC       _CheckXonXoff_3
 2874:00F2       _Serial_Isr_3
 2874:02DC       _InstallCom_3
 2874:040D       _RestoreCom_3
 28BF:0001       _IsComOutBufEmpty_3
 28BF:000E       _ReadCom_3
 28C6:000E       _ToComBufn_3
 28DB:000E       _SetComTimeout_3
 28DB:0019       _ToCom_3
 28E5:000E       _IsTxBufEmpty_3
 28E5:0016       _WaitTransmitOver_3
 28E8:000D       _SetBaudrate_4
 28E8:006C       _SetDataFormat_4
 28FD:00A1       _InstallCom_DMA_4
 28FD:012C       _ReadComn_DMA_4
 28FD:01E0       _DataSizeInCom_DMA_4
 28FD:021C       _ClearCom_DMA_4
 28FD:023B       _IsCom_DMA_4
 28FD:024A       _ReadCom_DMA_4
 2927:0003       _IsCom_4
 2929:000B       _SetXonXoffControlMode_4
 2929:0016       _SetComPortBufferSize_4
 2929:003D       _ClearTxBuffer_4
 2929:0049       _GetTxBufferFreeSize_4
 2929:00D0       _InstallComInputData_4
 2929:00E2       _CheckXonXoff_4
 2929:00F8       _Serial_Isr_4
 2929:02E2       _InstallCom_4
 2929:0413       _RestoreCom_4
 2974:0007       _IsComOutBufEmpty_4
 2975:0004       _printCom_4
 2978:000D       _ReadCom_4
 297F:000D       _ToComBufn_4
 2994:000D       _ToComStr_4
 2997:000D       _SetComTimeout_4
 2997:0018       _ToCom_4
 29A1:000D       _IsTxBufEmpty_4
 29A1:0015       _WaitTransmitOver_4
 29A4:000C       _SetBaudrate_1
 29A4:0069       _SetDataFormat_1
 29B3:000A       _ToComBufn_1
 29C7:0009       _IsCom_1
 29C9:0004       _IsComOutBufEmpty_1
 29CA:0001       _ReadCom_1
 29D0:000A       _SetComTimeout_1
 29D0:0015       _ToCom_1
 29DC:000D       _SetXonXoffControlMode_1
 29DC:0018       _SetComPortBufferSize_1
 29DC:0040       _ClearTxBuffer_1
 29DC:0059       _GetTxBufferFreeSize_1
 29DC:0070       _SetComFifoTriggerLevel_1
 29DC:00E8       _GetInputBufFreeSize_1
 29DC:015A       _InstallComInputData_1
 29DC:016C       _CheckXonXoff_1
 29DC:0182       _CheckInputBufSize_1
 29DC:0501       _InstallCom_1
 29DC:0671       _RestoreCom_1
 2A4C:0009       _IsTxBufEmpty_1
 2A4C:0017       _WaitTransmitOver_1
 2A4F:000E       _SetBaudrate_2
 2A4F:006B       _SetDataFormat_2
 2A5E:000C       _ToComBufn_2
 2A71:000D       _IsCom_2
 2A73:0008       _IsComOutBufEmpty_2
 2A74:0005       _ReadCom_2
 2A78:0006       _SetComTimeout
 2A78:0011       _ToCom_2
 2A83:000B       _SetComPortBufferSize_2
 2A83:001C       _ClearTxBuffer_2
 2A83:0035       _GetTxBufferFreeSize_2
 2A83:004C       _SetComFifoTriggerLevel_2
 2A83:00C4       _GetInputBufFreeSize
 2A83:0110       _InstallComInputData_2
 2A83:02AC       _InstallCom_2
 2A83:03F3       _RestoreCom_2
 2ACB:000B       _IsTxBufEmpty_2
 2ACB:0019       _WaitTransmitOver_2
 2ACF:0000       _SetBaudrate_5
 2ACF:005D       _SetDataFormat_5
 2ADD:000E       _ToComBufn_5
 2AF1:000D       _IsCom_5
 2AF3:0008       _IsComOutBufEmpty_5
 2AF4:0005       _ReadCom_5
 2AFA:000E       _SetComTimeout_5
 2AFA:0019       _ToCom_5
 2B07:0001       _SetXonXoffControlMode_5
 2B07:000C       _SetComPortBufferSize_5
 2B07:0034       _ClearTxBuffer_5
 2B07:004D       _GetTxBufferFreeSize_5
 2B07:0064       _SetComFifoTriggerLevel_5
 2B07:00DC       _GetInputBufFreeSize_5
 2B07:014E       _InstallComInputData_5
 2B07:0160       _CheckXonXoff_5
 2B07:0176       _CheckInputBufSize_5
 2B07:04F5       _InstallCom_5
 2B07:0665       _RestoreCom_5
 2B76:000D       _IsTxBufEmpty_5
 2B76:001B       _WaitTransmitOver_5
 2B7A:0002       _SetBaudrate_6
 2B7A:005F       _SetDataFormat_6
 2B89:0000       _ToComBufn_6
 2B9C:000F       _IsCom_6
 2B9E:000A       _IsComOutBufEmpty_6
 2B9F:0007       _ReadCom_6
 2BA6:0000       _SetComTimeout_6
 2BA6:000B       _ToCom_6
 2BB2:0003       _SetXonXoffControlMode_6
 2BB2:000E       _SetComPortBufferSize_6
 2BB2:0036       _ClearTxBuffer_6
 2BB2:004F       _GetTxBufferFreeSize_6
 2BB2:0066       _SetComFifoTriggerLevel_6
 2BB2:00DE       _GetInputBufFreeSize_6
 2BB2:0150       _InstallComInputData_6
 2BB2:0162       _CheckXonXoff_6
 2BB2:0178       _CheckInputBufSize_6
 2BB2:04F7       _InstallCom_6
 2BB2:0667       _RestoreCom_6
 2C21:000F       _IsTxBufEmpty_6
 2C21:001D       _WaitTransmitOver_6
 2C25:0004       _SetBaudrate_7
 2C25:0061       _SetDataFormat_7
 2C34:0002       _ToComBufn_7
 2C48:0001       _IsCom_7
 2C49:000C       _IsComOutBufEmpty_7
 2C4A:0009       _ReadCom_7
 2C51:0002       _SetComTimeout_7
 2C51:000D       _ToCom_7
 2C5D:0005       _SetXonXoffControlMode_7
 2C5D:0010       _SetComPortBufferSize_7
 2C5D:0038       _ClearTxBuffer_7
 2C5D:0051       _GetTxBufferFreeSize_7
 2C5D:0068       _SetComFifoTriggerLevel_7
 2C5D:00E0       _GetInputBufFreeSize_7
 2C5D:0152       _InstallComInputData_7
 2C5D:0164       _CheckXonXoff_7
 2C5D:017A       _CheckInputBufSize_7
 2C5D:04F9       _InstallCom_7
 2C5D:0669       _RestoreCom_7
 2CCD:0001       _IsTxBufEmpty_7
 2CCD:000F       _WaitTransmitOver_7
 2CD0:0006       _GetDi1
 2CD1:0001       _SetDo1
 2CD2:0009       _GetDi2
 2CD3:0003       _SetDo2
 2CD4:000B       _ascii_to_hex
 2CD9:2152       e086_Entry
 2CD9:26E0       e086_Shortcut
 2F51:0306       e087_Entry
 2F51:03C6       e087_Shortcut
 2F51:0430       e087_Trap
 2FAE:0000       DATASEG@
 2FAE:005B       __Int0Vector
 2FAE:005F       __Int4Vector
 2FAE:0063       __Int5Vector
 2FAE:0067       __Int6Vector
 2FAE:006B       __C0argc
 2FAE:006D       __C0argv
 2FAE:0071       __C0environ
 2FAE:0075       __envLng
 2FAE:0077       __envseg
 2FAE:0079       __envSize
 2FAE:007B       __psp
 2FAE:007D       __osversion
 2FAE:007D       __osmajor
 2FAE:007D       __version
 2FAE:007E       __osminor
 2FAE:007F       _errno
 2FAE:0081       __StartTime
 2FAE:0085       ___brklvl
 2FAE:0087       __heapbase
 2FAE:008B       __brklvl
 2FAE:008F       __heaptop
 2FAE:0094       _sw_ver
 2FAE:00A8       _sw_ver1
 2FAE:00BC       _ComBaud
 2FAE:00D0       _Com_lgth
 2FAE:00DA       _Com_parity
 2FAE:00E4       _Com_stop
 2FAE:00EE       _ComProt
 2FAE:00F8       _baudrate_val
 2FAE:0124       _MMI_inp_err
 2FAE:0126       _MMI_out_err
 2FAE:0128       _ZeroPage
 2FAE:012A       _EmptPage
 2FAE:012C       _TimeDelayForFirstTurnOn
 2FAE:0130       _flagFirstTurnOn
 2FAE:0132       _flag_prn
 2FAE:0134       _flag_H
 2FAE:0136       _last_out
 2FAE:0140       _scom_tim
 2FAE:0154       _Tm_snd
 2FAE:0168       _time_snd
 2FAE:017C       _time_rcv
 2FAE:0190       _ghj
 2FAE:0192       _n_bcom
 2FAE:019C       _ff_serv
 2FAE:01A0       _ff_gets_com
 2FAE:01B4       _ff_answ_com
 2FAE:01C8       _ff_answ_flt
 2FAE:01DC       _ds_list1
 2FAE:054C       _max_list1
 2FAE:054E       _time1
 2FAE:0552       _dd_max
 2FAE:0556       _dd_min
 2FAE:055A       _one_sec_time
 2FAE:055E       _cl_val_c
 2FAE:0562       _cl_t_c
 2FAE:0566       _mn_fnt
 2FAE:0567       _mmikeycode
 2FAE:05C7       _mmi_sw
 2FAE:05C9       _fl_mmi_new
 2FAE:05CB       _fl_mmi_new1
 2FAE:05CD       _page_MMI
 2FAE:05CF       _page_MMI_c
 2FAE:05D1       _nm_stamp
 2FAE:05D5       _nm_time
 2FAE:05D9       _font_arr
 2FAE:05DD       _x_mmi
 2FAE:05DF       _y_mmi
 2FAE:05E1       _mmix
 2FAE:05E3       _mmiy
 2FAE:05E5       _fn_MMI
 2FAE:05E7       _MMI
 2FAE:062B       _MMI_Rqst
 2FAE:06CF       _ToutAns
 2FAE:06E3       _flag_fn
 2FAE:06E5       _cnt_flt_MMI
 2FAE:06E7       _mmi_key_in
 2FAE:06E9       _mmi_key_out
 2FAE:06EB       _sw_fst
 2FAE:06ED       _fst_n
 2FAE:06EF       _fst_in_n
 2FAE:06F1       _I7017C
 2FAE:0779       _I7017_Rqst
 2FAE:08C1       _i7017_dat
 2FAE:08C9       _i7017_inp_err
 2FAE:08CD       _sc_7017
 2FAE:08D1       _sci_7017
 2FAE:08D5       _Lvl_7017
 2FAE:0905       _INP_7017
 2FAE:0907       _I7060
 2FAE:098F       _I7060_Rqst
 2FAE:0AD7       _i7060_fn
 2FAE:0ADB       _I7060_wd_E
 2FAE:0ADF       _I7060_wd_VV
 2FAE:0AE3       _i7060_sw
 2FAE:0AE7       _OUT_VAR_c_r
 2FAE:0AE9       _i7060_out_err
 2FAE:0AED       _i7060_inp_err
 2FAE:0AF1       _i7060_seq
 2FAE:0B31       _I7060_fl
 2FAE:0B35       _msk4
 2FAE:0B3D       _n_sht4
 2FAE:0B45       _msk8
 2FAE:0B49       _n_sht8
 2FAE:0B4D       _Shtray_cod
 2FAE:0B4F       _Flag_mass
 2FAE:0B51       _K_mul_F
 2FAE:0B55       _T_Ref
 2FAE:0B59       _D_ref
 2FAE:0B5D       _V_ref
 2FAE:0B61       _flag_AD
 2FAE:0B63       _Cor_max
 2FAE:0B67       _mode_temp
 2FAE:0B69       _mode_refD
 2FAE:0B6B       _Dens_AD
 2FAE:0B6F       _Temp_AD
 2FAE:0B73       _Dens_a
 2FAE:0B77       _Temp_a
 2FAE:0B7B       _FctBern
 2FAE:0B7F       _R_MVD
 2FAE:0B83       _ff_serv_N
 2FAE:0B87       _MVD
 2FAE:0C0F       _MVD_Rqst
 2FAE:0D57       _MVD_Rqst_T
 2FAE:0E9F       _s_MVD
 2FAE:0FEB       _Dens0
 2FAE:0FEF       _Density
 2FAE:0FF3       _Temperature
 2FAE:0FF7       _Mas2
 2FAE:0FFB       _k_Mas
 2FAE:0FFF       _tt_Mas1
 2FAE:1003       _tt_Mas2
 2FAE:1007       _MVD_fn
 2FAE:100B       _MVD_sw
 2FAE:100F       _MVD_inp_err
 2FAE:1013       _MVD_seq
 2FAE:1033       _fl_rd_err
 2FAE:1035       _MVD_fl
 2FAE:1039       _MVD_Rd_err
 2FAE:103F       _MVD_Rd_FlowM
 2FAE:1045       _MVD_Rd_Dens
 2FAE:104B       _MVD_Rd_Temp
 2FAE:1051       _MVD_Rd_FlowV
 2FAE:1057       _MVD_Rd_Press
 2FAE:105D       _MVD_Rd_MassT
 2FAE:1063       _MVD_Rd_VolT
 2FAE:1069       _MVD_Rd_MassI
 2FAE:106F       _MVD_Rd_VolI
 2FAE:1075       _MVD_Rd_Slot
 2FAE:107B       _MVD_t_err
 2FAE:107F       _MVD_t_rslt
 2FAE:1083       _flag_mvd_fst
 2FAE:1085       _flag_mvd_ton
 2FAE:1087       _TimeMVD_Init
 2FAE:108B       _TimeMVD_evt
 2FAE:108F       _ii_MVD_i
 2FAE:1091       _ii_MVD_fl
 2FAE:1093       _MVD_i
 2FAE:10DF       _ii_MVD_max
 2FAE:10E1       _ModeFill
 2FAE:10E3       _lerr_MVD
 2FAE:10E7       _VolI_beg
 2FAE:10EB       _MassI_beg
 2FAE:10EF       _unit_lst
 2FAE:124F       _unit_codes
 2FAE:1301       _sw_mvd_1
 2FAE:1303       _mode_mvd
 2FAE:1305       _sw_MMI_cur
 2FAE:1307       _sw_MMI_lim
 2FAE:1309       _sw_mvd_m1
 2FAE:130B       _f_BIG_P
 2FAE:130F       _sw_mvd_3
 2FAE:1311       _fl_sl_tim3
 2FAE:1313       _err_F425
 2FAE:136F       _fl_take_temp
 2FAE:1371       _vol2
 2FAE:1375       _k_vol
 2FAE:1379       _tt_vol1
 2FAE:137D       _tt_vol2
 2FAE:1381       _tim_MVD_delay
 2FAE:1385       _VolT_int
 2FAE:1389       _summ_v_int
 2FAE:138D       _VolT_id
 2FAE:1391       _summ_v_id
 2FAE:1395       _CL_T0
 2FAE:1399       _CL_T1
 2FAE:139D       _CL_T2
 2FAE:13A1       _CL_T3
 2FAE:13A5       _CL_T4
 2FAE:13A9       _CL_T0_L
 2FAE:13AD       _CL_T1_L
 2FAE:13B1       _CL_T2_L
 2FAE:13B5       _CL_val0
 2FAE:13B9       _CL_val_L0
 2FAE:13BD       _CL_val
 2FAE:13C9       _CL_val_L
 2FAE:13D5       _t_ctrl
 2FAE:13D7       _tim_snd_MVDT
 2FAE:13DB       _MVDT1
 2FAE:13DF       _k_Test
 2FAE:13E3       _Sim_MassT
 2FAE:13E7       _Sim_Dens
 2FAE:13EB       _Sim_Temp
 2FAE:13EF       _Sim_MassI
 2FAE:13F3       _Sim_VolI
 2FAE:13F7       _Sim_FlowM
 2FAE:13FB       _Sim_VolT
 2FAE:13FF       _Sim_reg_err
 2FAE:1401       _io_1
 2FAE:1403       _TimeOut3
 2FAE:1407       _Out_en
 2FAE:1409       _flag_O0
 2FAE:140B       _flag_O1
 2FAE:140D       _flag_O3
 2FAE:140F       _flag_pool
 2FAE:1411       _flag_fill_ok
 2FAE:1413       _flag_gas
 2FAE:1415       _vol_mom
 2FAE:1419       _vol_mom0
 2FAE:141D       _flow_mom
 2FAE:1421       _k_Den
 2FAE:1425       _time_beg_fill
 2FAE:1429       _i_dens
 2FAE:142B       _time_chg_den
 2FAE:142F       _tim_dens
 2FAE:1433       _tim_dens0
 2FAE:1437       _tim_dens2
 2FAE:143B       _TimDensOff
 2FAE:143F       _TimDensOn
 2FAE:1443       _TimDensWt0
 2FAE:1447       _TimDensWt1
 2FAE:144B       _cl0_delay_off
 2FAE:144F       _cl1_delay_off
 2FAE:1453       _cl2_delay_off
 2FAE:1457       _Out3_delay_off
 2FAE:145B       _k_Den0_Off
 2FAE:145F       _k_Den0_On
 2FAE:1463       _k_Den_Off
 2FAE:1467       _k_Den_On
 2FAE:146B       _TimeBegFlch
 2FAE:146D       _ModeReduce
 2FAE:146F       _PressLvl_on0
 2FAE:1473       _PressLvl_off0
 2FAE:1477       _PressLvl_on1
 2FAE:147B       _PressLvl_off1
 2FAE:147F       _PressLvl_on2
 2FAE:1483       _PressLvl_off2
 2FAE:1487       _fl_VI
 2FAE:1489       _fl_MI
 2FAE:148B       _t_mvd_cor
 2FAE:148F       _flag_nal
 2FAE:1491       _cl_MVD_sw
 2FAE:1493       _t_prep_MVD
 2FAE:1497       _t_prep_MVD1
 2FAE:149B       _igun_1
 2FAE:149D       _flag_fst_gun
 2FAE:149F       _last_flch
 2FAE:14A1       _flag_flch
 2FAE:14A3       _flag_gun
 2FAE:14A5       _time_flch
 2FAE:14A7       _beg_flch
 2FAE:14AB       _val_flch
 2FAE:14AF       _val_flch2
 2FAE:14B3       _val0_flch
 2FAE:14B7       _valve_mode
 2FAE:14B9       _valve_modeL
 2FAE:14BB       _Flag_Low
 2FAE:14BD       _ff_valve
 2FAE:14C1       _Vol_beg
 2FAE:14C5       _Flow_beg
 2FAE:14C9       _dFP_beg
 2FAE:14CD       _Flow_min
 2FAE:14D1       _Mass_min
 2FAE:14D5       _dFP_min
 2FAE:14D9       _Flow_min1
 2FAE:14DD       _Mass_min1
 2FAE:14E1       _dFP_min1
 2FAE:14E5       _Flow_min2
 2FAE:14E9       _Mass_min2
 2FAE:14ED       _dFP_min2
 2FAE:14F1       _Flow_nom
 2FAE:14F5       _dFP_nom
 2FAE:14F9       _Flow_minL
 2FAE:14FD       _Mass_minL
 2FAE:1501       _dFP_minL
 2FAE:1505       _Flow_min1L
 2FAE:1509       _Mass_min1L
 2FAE:150D       _dFP_min1L
 2FAE:1511       _Flow_min2L
 2FAE:1515       _Mass_min2L
 2FAE:1519       _dFP_min2L
 2FAE:151D       _Flow_nomL
 2FAE:1521       _dFP_nomL
 2FAE:1525       _itmp_vv
 2FAE:1527       _P_min_valve
 2FAE:152B       _P_min_valveL
 2FAE:152F       _State_UpDn
 2FAE:1531       _Per_up_min_v
 2FAE:1535       _Per_up_max_v
 2FAE:1539       _Per_dn_min_v
 2FAE:153D       _Per_dn_max_v
 2FAE:1541       _Tim_hld
 2FAE:1545       _Per_UP_dl
 2FAE:1549       _Per_DN_dl
 2FAE:154D       _Per_up_min_vL
 2FAE:1551       _Per_up_max_vL
 2FAE:1555       _Per_dn_min_vL
 2FAE:1559       _Per_dn_max_vL
 2FAE:155D       _Tim_hldL
 2FAE:1561       _Per_UP_dlL
 2FAE:1565       _Per_DN_dlL
 2FAE:1569       _Tim_up
 2FAE:156D       _Tim_dn
 2FAE:1571       _time_ch_v
 2FAE:1575       _result_dlv
 2FAE:1577       _num_out1
 2FAE:1579       _num_out2
 2FAE:157B       _num_out3
 2FAE:157D       _num_out4
 2FAE:157F       _num_out5
 2FAE:1581       _num_out6
 2FAE:1583       _num_out7
 2FAE:1585       _num_out8
 2FAE:1587       _CLP0
 2FAE:1589       _num_in1
 2FAE:158B       _num_in2
 2FAE:158D       _num_in3
 2FAE:158F       _num_in4
 2FAE:1591       _num_in5
 2FAE:1593       _num_in6
 2FAE:1595       _num_in7
 2FAE:1597       _num_in8
 2FAE:1599       _num_in9
 2FAE:159B       _num_in10
 2FAE:159D       _num_in11
 2FAE:159F       _num_in12
 2FAE:15A1       _num_in13
 2FAE:15A3       _num_in14
 2FAE:15A5       _num_in15
 2FAE:15A7       _OUT_VAR
 2FAE:15A9       _OUT_VARi0
 2FAE:15AB       _INP_VAR
 2FAE:15AD       _INP_inv
 2FAE:15AF       _INP_VAR_c
 2FAE:15B1       _INP_VARi0
 2FAE:15B3       _INP_MSK_OK
 2FAE:15B5       _INP_MSK_OK_L
 2FAE:15B7       _OUT_VAR_c
 2FAE:15B9       _int_fict_11
 2FAE:15BB       _p_ik
 2FAE:1637       _msk_ik
 2FAE:1675       _fict_npn
 2FAE:1677       _num_pnt
 2FAE:16B7       _flag_ext_t
 2FAE:16B9       _Drive_SV_beg
 2FAE:16BD       _Drive_SA_beg
 2FAE:16C1       _Drive_SD_beg
 2FAE:16C5       _status_fct
 2FAE:16C7       _DriveStatus
 2FAE:16CB       _DriveSV
 2FAE:16D1       _DriveSA
 2FAE:16D7       _DriveSD
 2FAE:16DD       _DriveState
 2FAE:16E3       _DriveCurrent
 2FAE:16E9       _DriveError
 2FAE:16EF       _f_Drive_St_chk
 2FAE:16F3       _f_Drive_Rn_chk
 2FAE:16F7       _f_Drive_Stop
 2FAE:16FB       _f_Drive_Run
 2FAE:16FF       _analog_num
 2FAE:170F       _analog_scale
 2FAE:172F       _analog_offset
 2FAE:174F       _fl_GO
 2FAE:1751       _fl_EQ
 2FAE:1753       _flagS_ES
 2FAE:1755       _flagS_UZA
 2FAE:1757       _flagE_UZA
 2FAE:1759       _flagS_DLT
 2FAE:175B       _flag_rcv
 2FAE:175D       _time_com_cl
 2FAE:1761       _time_com_cl_off
 2FAE:1765       _time_cnt_cl_off
 2FAE:1769       _time_gas_cl_on
 2FAE:176D       _time_gas_cl_off
 2FAE:1771       _time_EQ_rcv
 2FAE:1775       _time_EQ_dlv
 2FAE:1779       _time_LIQ_rcv
 2FAE:177D       _time_LIQ_dlv
 2FAE:1781       _flag_dlv_fst
 2FAE:1783       _flag_prn_mass
 2FAE:1785       _sw_dlv_liq
 2FAE:1787       _sw_dlv_gas
 2FAE:1789       _sw_rcv_liq
 2FAE:178B       _sw_rcv_gas
 2FAE:178D       _flag_continue
 2FAE:178F       _list_avt
 2FAE:1C0F       _list_rcv
 2FAE:1C27       _time_t_snd
 2FAE:1C2B       _time_t_swtch
 2FAE:1C2F       _sw_ret
 2FAE:1C31       _Tim_Prep1
 2FAE:1C35       _Tim_Prep_ND
 2FAE:1C39       _P_beg_valve
 2FAE:1C3D       _F_Dns_off
 2FAE:1C41       _Flag_dns_flow
 2FAE:1C43       _key__1
 2FAE:1C45       _fl_GO_t
 2FAE:1C47       _INP_7188
 2FAE:1C49       _do1_t
 2FAE:1C4B       _do2_t
 2FAE:1C4D       _TSD_vn
 2FAE:1C59       _TSD_value
 2FAE:1C71       _n_dot
 2FAE:1C7D       _TSD
 2FAE:1D05       _TSD_Rqst
 2FAE:1E4D       _TSD_fn
 2FAE:1E51       _TSD_sw
 2FAE:1E55       _TSD_seq
 2FAE:1E75       _TSD_inp_err
 2FAE:1E79       _tsd_sw
 2FAE:1E7D       _fl_tsd_new
 2FAE:1E81       _fl_tsd_new1
 2FAE:1E85       _TSD_time_pool
 2FAE:1E89       _TSD_period
 2FAE:1E8D       _fict_TSD
 2FAE:1E91       _TSD_val_c
 2FAE:1EA9       _tsd_swf
 2FAE:1EAD       _buf_space
 2FAE:1EB4       _ICP_dd
 2FAE:1ED4       _Reg_err
 2FAE:1ED6       _icp_lst_max
 2FAE:1ED8       _ICP_error
 2FAE:1EF4       _ICP_error_c
 2FAE:1F10       _FL_err
 2FAE:1F12       _ICP_fict
 2FAE:1F56       _Rqst_fict
 2FAE:1FFA       _fict_long
 2FAE:1FFE       _TimeClear
 2FAE:2002       _waTempOn
 2FAE:2004       _waTemp
 2FAE:2008       _mas_ch_cur_old
 2FAE:2010       _mas_ch_cur
 2FAE:2018       _mas_ch1_cur_old
 2FAE:2020       _MassT_old
 2FAE:2024       _mas_ch1_cur
 2FAE:202C       _vol_ch2_cur
 2FAE:2034       _mas_ch1_start
 2FAE:203C       _vol_ch2_start
 2FAE:2044       _mas_ch1_end
 2FAE:204C       _vol_ch2_end
 2FAE:2054       _type_liq
 2FAE:2056       _KK0
 2FAE:208E       _KK1
 2FAE:20C6       _Aa
 2FAE:20CA       _Bb
 2FAE:20CE       _C1
 2FAE:20D6       _C2
 2FAE:20DE       _C3
 2FAE:20E6       _C4
 2FAE:20EE       _Mass_cmn
 2FAE:20F6       _Dens_cmn
 2FAE:20FE       _Dens_cmn_f
 2FAE:2102       _TimeOneShot
 2FAE:2106       _T_one_Shot
 2FAE:2EFA       _EchoComN
 2FAE:2EFC       _seg
 2FAE:2EFE       _offset
 2FAE:2F00       _AddrHost
 2FAE:2F02       _ComPortHost
 2FAE:2F04       _ComPortEcho
 2FAE:2F06       _CRC_flag_Echo
 2FAE:2F08       _ch_tmp
 2FAE:2F09       _flag_echo_host
 2FAE:2F0B       _flag_Deb
 2FAE:2F0D       _flag_host_send
 2FAE:2F0F       _msk_int
 2FAE:2F31       _cost_v
 2FAE:2F35       _amount_f
 2FAE:2F39       _volume_f
 2FAE:2F3D       _vol_f
 2FAE:2F41       _summ_v
 2FAE:2F45       _list_pt
 2FAE:2F4D       _list_liq
 2FAE:2F69       _adr_strt
 2FAE:2F6D       _Host
 2FAE:2FB1       _Host_Rqst
 2FAE:3055       _Host_Rqst_rtu
 2FAE:30F9       _Host_Rqst_sk
 2FAE:319D       _WDOG
 2FAE:3225       _WDOG_Rqst
 2FAE:336D       _host_wd_sw
 2FAE:3377       _MVD_fl_ord
 2FAE:337B       _mvd_reg_n
 2FAE:337F       _mvd_reg_q
 2FAE:3383       _ff_putch
 2FAE:3397       _intrpr
 2FAE:34A1       _par1
 2FAE:34A5       _par2
 2FAE:34A9       _par3
 2FAE:34AD       _par4
 2FAE:34B1       _ds_par
 2FAE:34E9       _p_mem
 2FAE:34ED       _mem_ptr
 2FAE:34F1       _ds_dm
 2FAE:34FF       _ds_zp
 2FAE:351B       _ds_scan
 2FAE:3553       _ds_mdn
 2FAE:3561       _ds_mdf
 2FAE:35A7       _ds_lt
 2FAE:35B5       _ds_parp
 2FAE:35D1       _sk_reg_n
 2FAE:35D5       _sk_reg_q
 2FAE:35D9       _ds_rmvd
 2FAE:35F5       _wmvd_reg_v
 2FAE:35F9       _ds_wmvd
 2FAE:3615       _ds_wmvds
 2FAE:363F       _fl_id
 2FAE:3643       _fl_id1
 2FAE:3647       _chr_id
 2FAE:365B       _ds_bid
 2FAE:3685       _ds_id
 2FAE:3693       _ds_dps
 2FAE:36F5       _wmf_v
 2FAE:36F9       _ds_wmvf
 2FAE:3715       _ds_de
 2FAE:37BD       _ds_ioch
 2FAE:37E7       _ds_io
 2FAE:3803       _ds_dio
 2FAE:382D       _ds_io1
 2FAE:3881       _ds_io2
 2FAE:38D5       _ds_iod1
 2FAE:38FF       _ds_iod2
 2FAE:3929       _ds_dpd
 2FAE:398B       _Sl3_addr_e
 2FAE:398D       _Sl3_lgth_e
 2FAE:398F       _Sl3_time_e
 2FAE:3991       _Sl3_time_mul_e
 2FAE:3993       _Sl3_nn_e
 2FAE:3995       _Sl3_fl_jrn
 2FAE:3997       _Sl3_fl_jrn_e
 2FAE:3999       _ds_slt
 2FAE:39ED       _ds_sll
 2FAE:3A4F       _ds_mvd
 2FAE:3ABF       _ds_mvt
 2FAE:3ADB       _ds_swt
 2FAE:3B13       _ds_clt
 2FAE:3B59       _ds_cst
 2FAE:3B83       _ds_vol
 2FAE:3B9F       _ds_ofp
 2FAE:3BAD       _tmp_go
 2FAE:3BAF       _ds_stg
 2FAE:3BBD       _ds_clv
 2FAE:3C2D       _ds_clvl
 2FAE:3C8F       _dsc_tmp
 2FAE:3C93       _offs_cor
 2FAE:3C97       _fct_offs
 2FAE:3C9B       _fct_offs_L
 2FAE:3C9F       _ds_dsc
 2FAE:3CE5       _ds_ka
 2FAE:3D0F       _ds_mko
 2FAE:3D7F       _ds_mks
 2FAE:3E51       _ds_mki
 2FAE:3F23       _ds_mka
 2FAE:3F3F       _ds_na
 2FAE:3F5B       _ds_no
 2FAE:3F77       _ds_fle
 2FAE:3F85       _ds_pda
 2FAE:3FA1       _n_lst
 2FAE:3FA3       _ds_pdl
 2FAE:3FB1       _ds_pdda
 2FAE:3FBF       _d_lst
 2FAE:3FC1       _ds_pddl
 2FAE:3FCF       _tt_sec
 2FAE:3FD1       _tt_min
 2FAE:3FD3       _tt_hour
 2FAE:3FD5       _tt_day
 2FAE:3FD7       _tt_month
 2FAE:3FD9       _tt_year
 2FAE:3FDB       _ds_pddp
 2FAE:403D       _ds_pdn
 2FAE:404B       _ds_tsd
 2FAE:4083       _cutoff_off_M
 2FAE:4087       _cutoff_off_V
 2FAE:408B       _cutoff_on_M
 2FAE:408F       _cutoff_on_V
 2FAE:4093       _ds_ctrl
 2FAE:40E7       _ds_br
 2FAE:411F       _ds_cp
 2FAE:4165       _ds_trtu
 2FAE:419D       _ds_sct
 2FAE:41D5       _cm_baud
 2FAE:41D9       _ds_cm
 2FAE:4211       _ds_dev
 2FAE:4265       _baud
 2FAE:4269       _ds_mod
 2FAE:42A1       _ds_modf
 2FAE:42AF       _ds_dnf
 2FAE:42CB       _ds_dd
 2FAE:42F5       _ds_dp
 2FAE:431F       _ds_df
 2FAE:4357       _ds_di
 2FAE:4381       _ds_mdp
 2FAE:438F       _ds_mdi
 2FAE:439D       _ds_kp
 2FAE:43C7       _ds_kdp
 2FAE:43F1       _ds_kip
 2FAE:441B       _ds_kfp
 2FAE:4445       _ds_kfpL
 2FAE:446F       _ds_tfp
 2FAE:44D1       _ds_tfpL
 2FAE:4533       _ds_fp
 2FAE:4587       _ds_fpd
 2FAE:45CD       _ds_fpdL
 2FAE:4605       _ds_fpm
 2FAE:4667       _ds_fpmL
 2FAE:46BB       _ds_lp
 2FAE:4701       _ds_ldp
 2FAE:4747       _ds_dno
 2FAE:477F       _ds_part
 2FAE:47D3       _ds_pard
 2FAE:480B       _ds_dtc
 2FAE:4827       _ds_pass
 2FAE:4843       _ex_p
 2FAE:4847       _ex_m
 2FAE:484B       _ds_ex
 2FAE:4867       _ds_flch
 2FAE:48AD       _ds_modn
 2FAE:48BB       _ds_wins
 2FAE:48C9       _ds_adc
 2FAE:4939       _ds_adci
 2FAE:49A9       _ds_aio
 2FAE:49B7       _ds_adcl
 2FAE:4A27       _ds_com
 2FAE:4A35       _ds_echo
 2FAE:4A51       _fl_wr_eee
 2FAE:4A53       _ds_fls
 2FAE:4A6F       _ds_mdt
 2FAE:4A99       _ds_slv
 2FAE:4AED       _i_nn_d
 2FAE:4AF1       _fl_trace
 2FAE:4AF3       _i_nn
 2FAE:4AF7       _dim_xyz
 2FAE:4AF9       _fl_trace_loop
 2FAE:4AFB       _uk_buf
 2FAE:4AFD       _uk_ns
 2FAE:4B11       _f_ns
 2FAE:4B1B       _cnt_after
 2FAE:4B1D       _ns_fictf
 2FAE:4B21       _ns_fict
 2FAE:4B25       _list_ns
 2FAE:4B91       _list_ns_type
 2FAE:4BC7       _ds_vnn
 2FAE:4BF1       _i_num_var
 2FAE:4BF3       _ds_ivar
 2FAE:4C01       _f_num_var
 2FAE:4C03       _ds_fvar
 2FAE:4C11       _v_num_var
 2FAE:4C13       _ds_var
 2FAE:4C2F       _ds_ns
 2FAE:4C9F       _licp_sw
 2FAE:4CA1       _flag_print_licp
 2FAE:4CA3       _licp_port
 2FAE:4CA5       _ToutLicpScan
 2FAE:4CA7       _licp_amax
 2FAE:4CA9       _licp_crc_flag
 2FAE:4CAB       _licp_t_conf
 2FAE:4CAD       _ICP_mod_fnd
 2FAE:4CB7       _LICP_Rqst
 2FAE:4D5B       _LICP_Rqst_RTU
 2FAE:4DFF       _bas_1
 2FAE:4E03       _n_id
 2FAE:4E07       _f_res_id
 2FAE:4E0B       _id_ok
 2FAE:4E0D       _list_mnu
 2FAE:4E21       _eee_num
 2FAE:4E23       _ee_lgth_byte
 2FAE:4E25       _fict_ftmp
 2FAE:4E29       _fict_itmp
 2FAE:4E2B       _fict_sv
 2FAE:4E2D       _fict_int1
 2FAE:4E2F       _EE_Dat
 2FAE:5933       _ee_members
 2FAE:5935       _mode_r
 2FAE:5937       _flag_flow
 2FAE:5939       _Flow_on
 2FAE:594D       _Flow_off
 2FAE:5961       _P_dem
 2FAE:5965       _P_dem_c
 2FAE:5969       _f_Beg
 2FAE:596D       _k_p
 2FAE:5971       _k_i
 2FAE:5975       _k_d
 2FAE:5979       _maxP_errP
 2FAE:597D       _maxP_errM
 2FAE:5981       _LIM_P
 2FAE:5985       _LIM_M
 2FAE:5989       _LIM_P_c
 2FAE:598D       _YN
 2FAE:5991       _XN
 2FAE:5995       _XN_1
 2FAE:5999       _XN_2
 2FAE:599D       _P_Dif_d
 2FAE:59A1       _kd_p
 2FAE:59A5       _kd_i
 2FAE:59A9       _kd_d
 2FAE:59AD       _maxPd_errP
 2FAE:59B1       _maxPd_errM
 2FAE:59B5       _LIMd_P
 2FAE:59B9       _LIMd_M
 2FAE:59BD       _YdN
 2FAE:59C1       _XdN
 2FAE:59C5       _XdN_1
 2FAE:59C9       _XdN_2
 2FAE:59CD       _I_dem
 2FAE:59D1       _ki_p
 2FAE:59D5       _ki_i
 2FAE:59D9       _ki_d
 2FAE:59DD       _maxPi_errP
 2FAE:59E1       _maxPi_errM
 2FAE:59E5       _LIMi_P
 2FAE:59E9       _LIMi_M
 2FAE:59ED       _XiN
 2FAE:59F1       _XiN_1
 2FAE:59F5       _XiN_2
 2FAE:59F9       _tl_reg_b
 2FAE:59FD       _tl_reg_e
 2FAE:5A01       _tl_reg_res
 2FAE:5A05       _t_reg_res
 2FAE:5A07       _flg_prn_reg
 2FAE:5A09       _mode_i
 2FAE:5A0B       _Flow_dem
 2FAE:5A0F       _Hop
 2FAE:5A13       _Hop_cur
 2FAE:5A17       _kf_p
 2FAE:5A1B       _kf_i
 2FAE:5A1F       _kf_d
 2FAE:5A23       _kf_pL
 2FAE:5A27       _kf_iL
 2FAE:5A2B       _kf_dL
 2FAE:5A2F       _YfN
 2FAE:5A33       _XfN
 2FAE:5A37       _XfN_1
 2FAE:5A3B       _XfN_2
 2FAE:5A3F       _dF_perm
 2FAE:5A43       _LIM_FLOW_P
 2FAE:5A47       _LIM_FLOW_M
 2FAE:5A4B       _maxF_errP
 2FAE:5A4F       _maxF_errM
 2FAE:5A53       _LIM_FLOW_PL
 2FAE:5A57       _LIM_FLOW_ML
 2FAE:5A5B       _maxF_errPL
 2FAE:5A5F       _maxF_errML
 2FAE:5A63       _Value_beg
 2FAE:5A67       _flow_D
 2FAE:5AAB       _filename
 2FAE:5ABF       _file0_lgth
 2FAE:5AC3       _file_lgth
 2FAE:5AC7       _file_ptr
 2FAE:5ACB       _file_name
 2FAE:5ACF       _lgth_fl
 2FAE:5AD3       _ll_fl
 2FAE:5AD7       _fl_md_fst
 2FAE:6B42       _WHOLE
 2FAE:6B44       _beginValue
 2FAE:6B48       _beginMassa
 2FAE:6B4C       _fillingFlag
 2FAE:6B4E       _n_pp
 2FAE:6B50       _n_ASN
 2FAE:6B52       _ftmp_DP
 2FAE:6B56       _mode_hst
 2FAE:6B58       _str_prod
 2FAE:6B6E       _str_dsp1
 2FAE:6B8D       _str_dsp2
 2FAE:6BAC       _str_dsp3
 2FAE:6BCB       _str_dsp4
 2FAE:6BEA       _str_dsp5
 2FAE:6C09       _str_dsp6
 2FAE:6C28       _str_dsp7
 2FAE:6C47       _type_dlv
 2FAE:6C49       _sect_num
 2FAE:6C4B       _sect_mass
 2FAE:6C4D       _sect_vol
 2FAE:6C4F       _sect_rslt
 2FAE:6C51       _MassStamp
 2FAE:6C55       _VolStamp
 2FAE:6C59       _vBIG_P
 2FAE:6C5D       _tm_md
 2FAE:6C61       _flag_prok
 2FAE:6C63       _mode_prok
 2FAE:6C6C       _otpusk
 2FAE:6C75       _prok_ka
 2FAE:6C7E       _str_empt
 2FAE:6C9E       _str_x_shtray
 2FAE:6CB8       _str_x_0
 2FAE:6CD1       _sdv_m_flow
 2FAE:6CD5       _sdv_v_flow
 2FAE:6CD9       _sdv_dens
 2FAE:6CDD       _fl_zeroing
 2FAE:6CE1       _s_empty
 2FAE:6D00       _str_ESC
 2FAE:6D0D       _PageD
 2FAE:6D0F       _flg_ch
 2FAE:6D11       _Flag_f_corr
 2FAE:6D13       _flag_mass
 2FAE:6D15       _pass_ret
 2FAE:6D17       _k_v_flow
 2FAE:6D1B       _k_m_flow
 2FAE:6D1F       _k_dens
 2FAE:6D23       _pass1
 2FAE:6D27       _pass2
 2FAE:6D2B       _n_id_a
 2FAE:6D2F       _flag_esc
 2FAE:6D31       _un_mmi1
 2FAE:6D33       _un_mmi2
 2FAE:6D35       _un_mmi3
 2FAE:6D37       _list_un_mmi
 2FAE:6D53       _CRC_err
 2FAE:6D55       _mode_prn
 2FAE:6D57       _rcv_mm
 2FAE:6D5F       _Rcv_mm
 2FAE:6D67       _unit1
 2FAE:6D6B       _unit2
 2FAE:6D6F       _unit3
 2FAE:6D73       _unit4
 2FAE:6D77       _unit5
 2FAE:6D7B       _unit6
 2FAE:6D7F       _list1_dsr
 2FAE:7053       _list2_dsr
 2FAE:7063       _mmi_point
 2FAE:7064       _mmi_prm
 2FAE:7066       _mmi_flag
 2FAE:7068       _num_page
 2FAE:706A       _sw_mmi
 2FAE:706C       _mmi_str
 2FAE:706E       _mmi_com
 2FAE:7070       _flag_chg
 2FAE:7072       _nn_chg
 2FAE:7074       _max_par
 2FAE:7076       _FlagWinSum
 2FAE:7078       _ds_list
 2FAE:707C       _Password
 2FAE:7080       _PassW
 2FAE:7084       _Password_m
 2FAE:7088       _PassWm
 2FAE:708C       _k_ext
 2FAE:708E       _k_ext1
 2FAE:7090       _chg_nn_par
 2FAE:7094       _chg_old
 2FAE:7098       _chg_new
 2FAE:709C       _dose_dlvr
 2FAE:70A0       _n_adc_mm
 2FAE:70A2       _flag_Slv_1
 2FAE:70A4       _byte_timout_rtu
 2FAE:70B8       _table_crc_hi
 2FAE:71B8       _table_crc_lo
 2FAE:72B8       _flash_seg
 2FAE:72BA       _flash_offset
 2FAE:72BC       _tim_000
 2FAE:72C2       _rcv_m
 2FAE:72CA       _Rcv_m
 2FAE:72D2       _retl_seg
 2FAE:72D4       _ahour00
 2FAE:72DA       _adate00
 2FAE:72E0       _mhour00
 2FAE:72F2       _mdat0
 2FAE:7304       _mdat
 2FAE:7316       _s_mode
 2FAE:7318       _d_fl_seg
 2FAE:731A       _d_fl_offs
 2FAE:731C       _changeStateF1
 2FAE:731E       _CMD_IN
 2FAE:7320       _CMD_OUT_p
 2FAE:7322       _State_SLVm
 2FAE:7324       _T_Pmp_LG
 2FAE:7326       _OUT_Pmp
 2FAE:7328       _reg_cmn
 2FAE:732A       _n_id_af
 2FAE:732E       _ff_Slv
 2FAE:7332       _flag_Slv
 2FAE:7334       _flag_ZT
 2FAE:7336       _ComPortSlv
 2FAE:7338       _dose_dlvr_sl
 2FAE:733C       _AddrSlv
 2FAE:733E       _cod_float
 2FAE:7340       _State_SLV
 2FAE:7342       _Last_evt
 2FAE:7344       _sw_mmi_slv
 2FAE:7346       _sw_dlv_slv
 2FAE:7348       _WD_PMP_flag
 2FAE:734A       _WD_PMP_Fl
 2FAE:734C       _WD_PMP_time
 2FAE:7350       _WD_PMP_t1
 2FAE:7354       _WD_PMP_Per
 2FAE:7358       _Slv_fict
 2FAE:735A       _Slv_fict1
 2FAE:735C       _Slv_fict2
 2FAE:735E       _Slv_fict3
 2FAE:7360       _Slv_fict4
 2FAE:7362       _flag_slvrtu
 2FAE:7364       _fl_slv_out
 2FAE:7366       _byte_timout_slv
 2FAE:736A       _out_delay_slv
 2FAE:736E       _list_Slv_int
 2FAE:7622       _n_sl_int
 2FAE:7624       _n_sl_int1
 2FAE:7626       _list_Slv_flt
 2FAE:76BE       _Com_Baud_Slave
 2FAE:76C2       _list_Slv_lng
 2FAE:76C6       _n_sl_lng
 2FAE:76C8       _n_sl_lng1
 2FAE:76CA       _n_sl_flt
 2FAE:76CC       _n_sl_flt1
 2FAE:76CE       _n_sl_flt0
 2FAE:76D0       _Slv_int
 2FAE:76F8       _Slv_float
 2FAE:7748       _Slv_lng
 2FAE:7770       _Slv2_Slot1
 2FAE:7872       _Slv2_slt1_lgth
 2FAE:7874       _Slv2_slt1_max
 2FAE:7876       _Slv2_Slot2
 2FAE:7894       _Slv2_slt2_lgth
 2FAE:7896       _Slv2_slt2_max
 2FAE:7898       _Flag_sl3
 2FAE:789A       _Flag_sl31
 2FAE:789C       _Slv2_Slot3
 2FAE:791A       _Slv2_slt3_lgth
 2FAE:791C       _Slv2_slt3_max
 2FAE:791E       _Sl3_addr
 2FAE:7920       _Sl3_lgth
 2FAE:7922       _Sl3_time
 2FAE:7924       _Sl3_time_mul
 2FAE:7926       _Sl3_nn
 2FAE:7928       _Sl3_time_l
 2FAE:792C       _Slv2_Slot4
 2FAE:794A       _Slv2_slt4_lgth
 2FAE:794C       _Slv2_slt4_max
 2FAE:794E       _ComBaudSlv
 2FAE:7952       _Com_lgthSlv
 2FAE:7954       _Com_paritySlv
 2FAE:7956       _Com_stopSlv
 2FAE:7958       _uk_beg_Slv
 2FAE:795A       _uk_fin_Slv
 2FAE:795C       _nn_comb
 2FAE:795E       _n_max_rcv
 2FAE:7960       _flag_wd_err
 2FAE:7962       _Tim_set_out
 2FAE:7966       _time_set_out
 2FAE:796A       _flag_set_out
 2FAE:796C       _ds_1
 2FAE:7970       _OFP_fl
 2FAE:7974       _OFP
 2FAE:79FC       _OFP_Rqst
 2FAE:7B44       _OFP_Rqst_T
 2FAE:7C8C       _OFP_RD
 2FAE:7C92       _i2_OFP
 2FAE:7C94       _OFP_inp_err
 2FAE:7C98       _OFP_t_err
 2FAE:7C9C       _INP_OFP
 2FAE:B9F6       _ShowData
 2FAE:BA0A       _MaxDay
 2FAE:BA22       _TimeTicks
 2FAE:BA26       _ResetMode
 2FAE:BA2A       _IntVect
 2FAE:BA2E       _SystemSerialNumber
 2FAE:BA32       ____OsType__
 2FAE:BA36       _Unit_ms
 2FAE:BA38       _Unit_ms1
 2FAE:BA3A       _Unit_ms2
 2FAE:BA3C       _bNeedSetSpeed
 2FAE:BA3E       ___BaudDiv__
 2FAE:BA42       __CpuSpeed
 2FAE:BA44       _STD_PORT
 2FAE:BA48       _EE_ClockHighLow
 2FAE:BA4C       _EE1_RandomRead
 2FAE:BA50       _EE1_ReadNext
 2FAE:BA54       _EE1_MultiRead
 2FAE:BA58       _EE1_RandomWrite
 2FAE:BA5C       _EE1_MultiWrite
 2FAE:BA60       _WaitAckCount
 2FAE:BA62       _EE_Err
 2FAE:BA64       _bWrite
 2FAE:BA66       _EepType
 2FAE:BA68       _EepBlockOffset
 2FAE:BA6A       _EepAddrOffset
 2FAE:BA6C       _ProtectMode
 2FAE:BA6E       _fCheck
 2FAE:BA70       _StartSector
 2FAE:BA72       _FlashId
 2FAE:BA74       _FlashSize
 2FAE:BA76       _SectorSize256
 2FAE:BA82       _SectorSize512
 2FAE:BAA2       _InstallCom_
 2FAE:BAC2       _ToComBufn_
 2FAE:BAE2       _RestoreCom_
 2FAE:BB02       _IsCom_
 2FAE:BB22       _ReadCom_
 2FAE:BB42       _SetBaudrate_
 2FAE:BB62       _SetDataFormat_
 2FAE:BB82       _ToCom_
 2FAE:BBA2       _IsTxBufEmpty_
 2FAE:BBC2       _TriggerLevel
 2FAE:BBD0       _WaitTransmitOver_
 2FAE:BBF0       __Modify_Data
 2FAE:BC00       __Stop2_3
 2FAE:BC08       _In7188Buf_3
 2FAE:BC0C       _Out7188Buf_3
 2FAE:BC10       _InBufSize_3
 2FAE:BC12       _OutBufSize_3
 2FAE:BC14       _InBeginIdx_3
 2FAE:BC16       _InEndIdx_3
 2FAE:BC18       _OutBeginIdx_3
 2FAE:BC1A       _OutEndIdx_3
 2FAE:BC1C       _SizeToXoff_3
 2FAE:BC1E       _SizeToXon_3
 2FAE:BC20       _ReceiveXoff_3
 2FAE:BC21       _NeedXoff_3
 2FAE:BC22       _SendXoff_3
 2FAE:BC23       _bUseXonXoff_3
 2FAE:BC24       _err_3
 2FAE:BC25       _UseDMA_3
 2FAE:BC27       _OldVectA
 2FAE:BC2B       _ComData7_3
 2FAE:BC2D       _Rcnt_3
 2FAE:BC31       _LossCnt__3
 2FAE:BC35       _LossCnt_1_3
 2FAE:BC39       _LossCnt_2_3
 2FAE:BC3D       _status1_3
 2FAE:BC43       _bGetBreak_3
 2FAE:BC48       __Stop2_4
 2FAE:BC50       _In7188Buf_4
 2FAE:BC54       _Out7188Buf_4
 2FAE:BC58       _InBufSize_4
 2FAE:BC5A       _OutBufSize_4
 2FAE:BC5C       _InBeginIdx_4
 2FAE:BC5E       _InEndIdx_4
 2FAE:BC60       _OutBeginIdx_4
 2FAE:BC62       _OutEndIdx_4
 2FAE:BC64       _SizeToXoff_4
 2FAE:BC66       _SizeToXon_4
 2FAE:BC68       _ReceiveXoff_4
 2FAE:BC69       _NeedXoff_4
 2FAE:BC6A       _SendXoff_4
 2FAE:BC6B       _bUseXonXoff_4
 2FAE:BC6C       _err_4
 2FAE:BC6D       _UseDMA_4
 2FAE:BC6F       _OldVectB
 2FAE:BC73       _ComData7_4
 2FAE:BC75       _Rcnt_4
 2FAE:BC79       _LossCnt_0_4
 2FAE:BC7D       _LossCnt_1_4
 2FAE:BC81       _LossCnt_2_4
 2FAE:BC85       _status1_4
 2FAE:BC8B       _bGetBreak_4
 2FAE:BC92       _ComBase_1
 2FAE:BC94       _InInIdx_1
 2FAE:BC96       _InOutIdx_1
 2FAE:BC98       _ComErr_1
 2FAE:BC99       _InData_1
 2FAE:BC9D       _OutData_1
 2FAE:BCA1       _InBufSize_1
 2FAE:BCA3       _OutBufSize_1
 2FAE:BCA5       _OutInIdx_1
 2FAE:BCA7       _OutOutIdx_1
 2FAE:BCA9       _fCtsControlMode_1
 2FAE:BCAB       _fRtsControlMode_1
 2FAE:BCAD       _CurCTS_1
 2FAE:BCAF       _CurRTS_1
 2FAE:BCB1       _bCtsChanged_1
 2FAE:BCB3       _SizeToXoff_1
 2FAE:BCB5       _SizeToXon_1
 2FAE:BCB7       _ReceiveXoff_1
 2FAE:BCB8       _NeedXoff_1
 2FAE:BCB9       _SendXoff_1
 2FAE:BCBA       _bUseXonXoff_1
 2FAE:BCBB       _ComFcr_1
 2FAE:BCBC       _DoInputData_1
 2FAE:BCC0       _ComInCount_1
 2FAE:BCC4       _ComOutCount_1
 2FAE:BCC8       _bGetBreak_1
 2FAE:BCCE       _bMsrChanged_1
 2FAE:BCD0       _LsrError_1
 2FAE:BCD4       _ComBase_2
 2FAE:BCD6       _InInIdx_2
 2FAE:BCD8       _InOutIdx_2
 2FAE:BCDA       _ComErr_2
 2FAE:BCDB       _InData_2
 2FAE:BCDF       _OutData_2
 2FAE:BCE3       _InBufSize_2
 2FAE:BCE5       _OutBufSize_2
 2FAE:BCE7       _OutInIdx_2
 2FAE:BCE9       _OutOutIdx_2
 2FAE:BCEB       _ComFcr_2
 2FAE:BCEC       _DoInputData_2
 2FAE:BCF0       _ComInCount_2
 2FAE:BCF4       _ComOutCount_2
 2FAE:BCF8       _bGetBreak_2
 2FAE:BCFE       _bMsrChanged
 2FAE:BD00       _LsrError_2
 2FAE:BD04       _ComBase_5
 2FAE:BD06       _InInIdx_5
 2FAE:BD08       _InOutIdx_5
 2FAE:BD0A       _ComErr_5
 2FAE:BD0B       _InData_5
 2FAE:BD0F       _OutData_5
 2FAE:BD13       _InBufSize_5
 2FAE:BD15       _OutBufSize_5
 2FAE:BD17       _OutInIdx_5
 2FAE:BD19       _OutOutIdx_5
 2FAE:BD1B       _fCtsControlMode_5
 2FAE:BD1D       _fRtsControlMode_5
 2FAE:BD1F       _CurCTS_5
 2FAE:BD21       _CurRTS_5
 2FAE:BD23       _bCtsChanged_5
 2FAE:BD25       _SizeToXoff_5
 2FAE:BD27       _SizeToXon_5
 2FAE:BD29       _ReceiveXoff_5
 2FAE:BD2A       _NeedXoff_5
 2FAE:BD2B       _SendXoff_5
 2FAE:BD2C       _bUseXonXoff_5
 2FAE:BD2D       _ComFcr_5
 2FAE:BD2E       _DoInputData_5
 2FAE:BD32       _ComInCount_5
 2FAE:BD36       _ComOutCount_5
 2FAE:BD3A       _bGetBreak_5
 2FAE:BD40       _bMsrChanged_5
 2FAE:BD42       _LsrError_5
 2FAE:BD46       _ComBase_6
 2FAE:BD48       _InInIdx_6
 2FAE:BD4A       _InOutIdx_6
 2FAE:BD4C       _ComErr_6
 2FAE:BD4D       _InData_6
 2FAE:BD51       _OutData_6
 2FAE:BD55       _InBufSize_6
 2FAE:BD57       _OutBufSize_6
 2FAE:BD59       _OutInIdx_6
 2FAE:BD5B       _OutOutIdx_6
 2FAE:BD5D       _fCtsControlMode_6
 2FAE:BD5F       _fRtsControlMode_6
 2FAE:BD61       _CurCTS_6
 2FAE:BD63       _CurRTS_6
 2FAE:BD65       _bCtsChanged_6
 2FAE:BD67       _SizeToXoff_6
 2FAE:BD69       _SizeToXon_6
 2FAE:BD6B       _ReceiveXoff_6
 2FAE:BD6C       _NeedXoff_6
 2FAE:BD6D       _SendXoff_6
 2FAE:BD6E       _bUseXonXoff_6
 2FAE:BD6F       _ComFcr_6
 2FAE:BD70       _DoInputData_6
 2FAE:BD74       _ComInCount_6
 2FAE:BD78       _ComOutCount_6
 2FAE:BD7C       _bGetBreak_6
 2FAE:BD82       _bMsrChanged_6
 2FAE:BD84       _LsrError_6
 2FAE:BD88       _ComBase_7
 2FAE:BD8A       _InInIdx_7
 2FAE:BD8C       _InOutIdx_7
 2FAE:BD8E       _ComErr_7
 2FAE:BD8F       _InData_7
 2FAE:BD93       _OutData_7
 2FAE:BD97       _InBufSize_7
 2FAE:BD99       _OutBufSize_7
 2FAE:BD9B       _OutInIdx_7
 2FAE:BD9D       _OutOutIdx_7
 2FAE:BD9F       _fCtsControlMode_7
 2FAE:BDA1       _fRtsControlMode_7
 2FAE:BDA3       _CurCTS_7
 2FAE:BDA5       _CurRTS_7
 2FAE:BDA7       _bCtsChanged_7
 2FAE:BDA9       _SizeToXoff_7
 2FAE:BDAB       _SizeToXon_7
 2FAE:BDAD       _ReceiveXoff_7
 2FAE:BDAE       _NeedXoff_7
 2FAE:BDAF       _SendXoff_7
 2FAE:BDB0       _bUseXonXoff_7
 2FAE:BDB1       _ComFcr_7
 2FAE:BDB2       _DoInputData_7
 2FAE:BDB6       _ComInCount_7
 2FAE:BDBA       _ComOutCount_7
 2FAE:BDBE       _bGetBreak_7
 2FAE:BDC4       _bMsrChanged_7
 2FAE:BDC6       _LsrError_7
 2FAE:BDC8       _hex_to_ascii
 2FAE:BDE0       __8087
 2FAE:BDF0       __protected
 2FAE:BDF1       __LDT
 2FAE:BDF4       __default87
 2FAE:BDF6       __huge_flt
 2FAE:BDFA       __huge_dble
 2FAE:BE02       __huge_ldble
 2FAE:BE0C       __indefinite
 2FAE:BE10       __tiny_ldble
 2FAE:BE1A       __mathwhy
 2FAE:BFBC       __atexitcnt
 2FAE:BFBE       __ctype
 2FAE:C0C0       __exitbuf
 2FAE:C0C4       __exitfopen
 2FAE:C0C8       __exitopen
 2FAE:C0CC       __streams
 2FAE:C25C       __nfile
 2FAE:C25E       __openfd
 2FAE:C286       __fpstklen
 2FAE:C288       __doserrno
 2FAE:C28A       __dosErrorToSV
 2FAE:C364       __stklen
 2FAE:C402       _environ
 2FAE:C5E2       __monthDay
 2FAE:C5FC       _tzname
 2FAE:C604       _timezone
 2FAE:C608       _daylight
 2FAE:C616       __RealCvtVector
 2FAE:C61A       __ScanTodVector
 2FAE:C644       _TsdStrN
 2FAE:C648       _TsdStr
 2FAE:C65C       _TsdBuf1
 2FAE:C67A       _TsdBuf_c
 2FAE:C6B6       _iv_msk
 2FAE:C6D8       _fl_chp
 2FAE:C7D8       _time_chg_den2
 2FAE:C7DC       _time_chg_den0
 2FAE:C7E0       _tm3_mvd
 2FAE:C7E4       _tm31_mvd
 2FAE:C7E8       _u_cod
 2FAE:C7EA       _tim_snd_MVD
 2FAE:C7EE       _n_send
 2FAE:C7F2       _MVDit
 2FAE:C7FA       _itmp7060
 2FAE:C7FC       _i7060it
 2FAE:C804       _str_tmp
 2FAE:C82C       _fst_beg
 2FAE:C82E       _BufferMmiPrintf
 2FAE:C8AE       _mmikey
 2FAE:C8EE       _Zone_par
 2FAE:C9CE       _ScrBuf_c
 2FAE:CF9E       _ScrBuf
 2FAE:D56E       _dd_time
 2FAE:D572       _i_empty
 2FAE:D574       _ltt4
 2FAE:D578       _ltt3
 2FAE:D57C       _ltt2
 2FAE:D580       _ltt1
 2FAE:D584       _rltt4
 2FAE:D588       _rltt3
 2FAE:D58C       _rltt2
 2FAE:D590       _rltt1
 2FAE:D594       _itt4
 2FAE:D596       _itt3
 2FAE:D598       _itt2
 2FAE:D59A       _itt1
 2FAE:D59C       _ttt4
 2FAE:D59E       _i_ish
 2FAE:D5A0       _en_bot
 2FAE:D5C2       _inv_msk
 2FAE:D5E4       _TsdBuf
 2FAE:D620       _HCompos
 2FAE:D624       _HDens
 2FAE:D628       _HTemp
 2FAE:D62C       _tm_mvd_p
 2FAE:D630       _tm_mvd
 2FAE:D634       _i7060_outc
 2FAE:D638       _i7060_inp
 2FAE:D63C       _i7060_out
 2FAE:D640       _i7060_wdf
 2FAE:D644       _i7060_inph
 2FAE:D648       _i7060_inpl
 2FAE:D64C       _dat_i
 2FAE:D67C       _ADC_c4
 2FAE:D68C       _ADC_c
 2FAE:D70C       _ADC
 2FAE:D78C       _COM_que
 2FAE:DA20       _ftmp_naMMI
 2FAE:DA28       _ttt3_l
 2FAE:DA2C       _ttt2_l
 2FAE:DA30       _ttt1_l
 2FAE:DA34       _ttt3
 2FAE:DA36       _ttt2
 2FAE:DA38       _ttt1
 2FAE:DA3A       _fst_str
 2FAE:DA59       _MMI_str
 2FAE:DA81       _cb_COM
 2FAE:DE6A       _file_addr
 2FAE:DE6E       _digest
 2FAE:DE7E       _buffer
 2FAE:E27E       _len
 2FAE:E282       _context
 2FAE:E2DA       _ar_str0_
 2FAE:E2FC       _lng_chr
 2FAE:E300       _id_i3
 2FAE:E304       _ee_nn1
 2FAE:E308       _ee_nn
 2FAE:E30C       _nn
 2FAE:E30E       _buf_str
 2FAE:E322       _ftmp_p
 2FAE:E336       _addr0
 2FAE:E338       _FF_par
 2FAE:E33A       _TT_par
 2FAE:E33C       _timeout
 2FAE:E33E       _pool_time
 2FAE:E340       _CRC_flag
 2FAE:E342       _addr
 2FAE:E344       _port
 2FAE:E346       _status
 2FAE:E348       _cm_stop
 2FAE:E34A       _cm_parity
 2FAE:E34C       _cm_lgth
 2FAE:E34E       _pdn_tmp
 2FAE:E350       _n_dnn
 2FAE:E352       _n_end
 2FAE:E354       _n_beg
 2FAE:E356       _fle
 2FAE:E358       _ftmp_na
 2FAE:E360       _cst_tmp
 2FAE:E364       _mvd
 2FAE:E368       _str_mvd
 2FAE:E390       _ul
 2FAE:E394       _Kf3L
 2FAE:E398       _Kf2L
 2FAE:E39C       _Kf1L
 2FAE:E3A0       _Kf0L
 2FAE:E3A4       _Kf3
 2FAE:E3A8       _Kf2
 2FAE:E3AC       _Kf1
 2FAE:E3B0       _Kf0
 2FAE:E3B4       _Ki3
 2FAE:E3B8       _Ki2
 2FAE:E3BC       _Ki1
 2FAE:E3C0       _Ki0
 2FAE:E3C4       _Kd3
 2FAE:E3C8       _Kd2
 2FAE:E3CC       _Kd1
 2FAE:E3D0       _Kd0
 2FAE:E3D4       _K3
 2FAE:E3D8       _K2
 2FAE:E3DC       _K1
 2FAE:E3E0       _K0
 2FAE:E3E4       _buf_eep
 2FAE:EBE6       _Eeprom_summ
 2FAE:EBEA       _VolTT
 2FAE:EBEE       _MassTT
 2FAE:EBF2       _Flash_ptr
 2FAE:EBF6       _licp_fnd
 2FAE:EBF8       _licp_addr
 2FAE:EBFA       _ICP_MOD
 2FAE:F492       _buf_tmp_OFP
 2FAE:F4A6       _i2_slv
 2FAE:F4A8       _i1_slv
 2FAE:F4AA       _buf_tmpSR
 2FAE:F572       _S1D
 2FAE:F578       _I12m
 2FAE:F57A       _I11m
 2FAE:F57C       _Reg_errm
 2FAE:F57E       _reg_cmnm
 2FAE:F580       _retl_offs
 2FAE:F582       _retf_iii
 2FAE:F584       _retf_seg
 2FAE:F586       _ar_str
 2FAE:F5A8       _adate11
 2FAE:F5AE       _pass_cnt
 2FAE:F5B0       _MMICompos
 2FAE:F5B4       _MMIDens
 2FAE:F5B8       _MMITemp
 2FAE:F5BC       _k_mv_tmp
 2FAE:F5C0       _zero_time
 2FAE:F5C4       _SLT3_A
 2FAE:F5C8       _SLT3_N
 2FAE:F5CC       _Slot3_dat
 2FAE:F5F4       _bf_Slv
 2FAE:F5F8       _ltime
 2FAE:F5FC       _ltime0
 2FAE:F600       _tVolI
 2FAE:F604       _tMassI
 2FAE:F730       _CurMsr_1
 2FAE:F732       _CurMsr
 2FAE:F748       _CurMsr_5
 2FAE:F754       _CurMsr_6
 2FAE:F760       _CurMsr_7
 2FAE:F762       __atexittbl
 2FAE:F7E2       ___SignalPtr
 3F30:0000       __emu

Program entry point at 0000:0000

